
GLCD_128.elf:     file format elf32-avr

Sections:
Idx Name          Size      VMA       LMA       File off  Algn
  0 .text         000008ac  00000000  00000000  00000094  2**1
                  CONTENTS, ALLOC, LOAD, READONLY, CODE
  1 .data         000000b0  00800060  000008ac  00000940  2**0
                  CONTENTS, ALLOC, LOAD, DATA
  2 .bss          00000400  00800110  00800110  000009f0  2**0
                  ALLOC
  3 .comment      00000030  00000000  00000000  000009f0  2**0
                  CONTENTS, READONLY
  4 .note.gnu.avr.deviceinfo 0000003c  00000000  00000000  00000a20  2**2
                  CONTENTS, READONLY
  5 .debug_aranges 000000b8  00000000  00000000  00000a5c  2**0
                  CONTENTS, READONLY, DEBUGGING
  6 .debug_info   000016d8  00000000  00000000  00000b14  2**0
                  CONTENTS, READONLY, DEBUGGING
  7 .debug_abbrev 00000816  00000000  00000000  000021ec  2**0
                  CONTENTS, READONLY, DEBUGGING
  8 .debug_line   00000a04  00000000  00000000  00002a02  2**0
                  CONTENTS, READONLY, DEBUGGING
  9 .debug_frame  000002e0  00000000  00000000  00003408  2**2
                  CONTENTS, READONLY, DEBUGGING
 10 .debug_str    0000045d  00000000  00000000  000036e8  2**0
                  CONTENTS, READONLY, DEBUGGING
 11 .debug_loc    000014e5  00000000  00000000  00003b45  2**0
                  CONTENTS, READONLY, DEBUGGING
 12 .debug_ranges 000000c0  00000000  00000000  0000502a  2**0
                  CONTENTS, READONLY, DEBUGGING

Disassembly of section .text:

00000000 <__vectors>:
   0:	0c 94 1a 01 	jmp	0x234	; 0x234 <__ctors_end>
   4:	0c 94 37 01 	jmp	0x26e	; 0x26e <__bad_interrupt>
   8:	0c 94 37 01 	jmp	0x26e	; 0x26e <__bad_interrupt>
   c:	0c 94 37 01 	jmp	0x26e	; 0x26e <__bad_interrupt>
  10:	0c 94 37 01 	jmp	0x26e	; 0x26e <__bad_interrupt>
  14:	0c 94 37 01 	jmp	0x26e	; 0x26e <__bad_interrupt>
  18:	0c 94 37 01 	jmp	0x26e	; 0x26e <__bad_interrupt>
  1c:	0c 94 37 01 	jmp	0x26e	; 0x26e <__bad_interrupt>
  20:	0c 94 37 01 	jmp	0x26e	; 0x26e <__bad_interrupt>
  24:	0c 94 37 01 	jmp	0x26e	; 0x26e <__bad_interrupt>
  28:	0c 94 37 01 	jmp	0x26e	; 0x26e <__bad_interrupt>
  2c:	0c 94 37 01 	jmp	0x26e	; 0x26e <__bad_interrupt>
  30:	0c 94 37 01 	jmp	0x26e	; 0x26e <__bad_interrupt>
  34:	0c 94 37 01 	jmp	0x26e	; 0x26e <__bad_interrupt>
  38:	0c 94 37 01 	jmp	0x26e	; 0x26e <__bad_interrupt>
  3c:	0c 94 37 01 	jmp	0x26e	; 0x26e <__bad_interrupt>
  40:	0c 94 37 01 	jmp	0x26e	; 0x26e <__bad_interrupt>
  44:	0c 94 37 01 	jmp	0x26e	; 0x26e <__bad_interrupt>
  48:	0c 94 37 01 	jmp	0x26e	; 0x26e <__bad_interrupt>
  4c:	0c 94 37 01 	jmp	0x26e	; 0x26e <__bad_interrupt>
  50:	0c 94 37 01 	jmp	0x26e	; 0x26e <__bad_interrupt>

00000054 <__trampolines_end>:
  54:	00 00       	nop
  56:	00 00       	nop
  58:	00 00       	nop
  5a:	00 5f       	subi	r16, 0xF0	; 240
  5c:	00 00       	nop
  5e:	00 07       	cpc	r16, r16
  60:	00 07       	cpc	r16, r16
  62:	00 14       	cp	r0, r0
  64:	7f 14       	cp	r7, r15
  66:	7f 14       	cp	r7, r15
  68:	24 2a       	or	r2, r20
  6a:	7f 2a       	or	r7, r31
  6c:	12 23       	and	r17, r18
  6e:	13 08       	sbc	r1, r3
  70:	64 62       	ori	r22, 0x24	; 36
  72:	36 49       	sbci	r19, 0x96	; 150
  74:	55 22       	and	r5, r21
  76:	50 00       	.word	0x0050	; ????
  78:	05 03       	mulsu	r16, r21
  7a:	00 00       	nop
  7c:	00 1c       	adc	r0, r0
  7e:	22 41       	sbci	r18, 0x12	; 18
  80:	00 00       	nop
  82:	41 22       	and	r4, r17
  84:	1c 00       	.word	0x001c	; ????
  86:	08 2a       	or	r0, r24
  88:	1c 2a       	or	r1, r28
  8a:	08 08       	sbc	r0, r8
  8c:	08 3e       	cpi	r16, 0xE8	; 232
  8e:	08 08       	sbc	r0, r8
  90:	00 50       	subi	r16, 0x00	; 0
  92:	30 00       	.word	0x0030	; ????
  94:	00 08       	sbc	r0, r0
  96:	08 08       	sbc	r0, r8
  98:	08 08       	sbc	r0, r8
  9a:	00 30       	cpi	r16, 0x00	; 0
  9c:	30 00       	.word	0x0030	; ????
  9e:	00 20       	and	r0, r0
  a0:	10 08       	sbc	r1, r0
  a2:	04 02       	muls	r16, r20
  a4:	3e 51       	subi	r19, 0x1E	; 30
  a6:	49 45       	sbci	r20, 0x59	; 89
  a8:	3e 00       	.word	0x003e	; ????
  aa:	42 7f       	andi	r20, 0xF2	; 242
  ac:	40 00       	.word	0x0040	; ????
  ae:	42 61       	ori	r20, 0x12	; 18
  b0:	51 49       	sbci	r21, 0x91	; 145
  b2:	46 21       	and	r20, r6
  b4:	41 45       	sbci	r20, 0x51	; 81
  b6:	4b 31       	cpi	r20, 0x1B	; 27
  b8:	18 14       	cp	r1, r8
  ba:	12 7f       	andi	r17, 0xF2	; 242
  bc:	10 27       	eor	r17, r16
  be:	45 45       	sbci	r20, 0x55	; 85
  c0:	45 39       	cpi	r20, 0x95	; 149
  c2:	3c 4a       	sbci	r19, 0xAC	; 172
  c4:	49 49       	sbci	r20, 0x99	; 153
  c6:	30 01       	movw	r6, r0
  c8:	71 09       	sbc	r23, r1
  ca:	05 03       	mulsu	r16, r21
  cc:	36 49       	sbci	r19, 0x96	; 150
  ce:	49 49       	sbci	r20, 0x99	; 153
  d0:	36 06       	cpc	r3, r22
  d2:	49 49       	sbci	r20, 0x99	; 153
  d4:	29 1e       	adc	r2, r25
  d6:	00 36       	cpi	r16, 0x60	; 96
  d8:	36 00       	.word	0x0036	; ????
  da:	00 00       	nop
  dc:	56 36       	cpi	r21, 0x66	; 102
  de:	00 00       	nop
  e0:	00 08       	sbc	r0, r0
  e2:	14 22       	and	r1, r20
  e4:	41 14       	cp	r4, r1
  e6:	14 14       	cp	r1, r4
  e8:	14 14       	cp	r1, r4
  ea:	41 22       	and	r4, r17
  ec:	14 08       	sbc	r1, r4
  ee:	00 02       	muls	r16, r16
  f0:	01 51       	subi	r16, 0x11	; 17
  f2:	09 06       	cpc	r0, r25
  f4:	32 49       	sbci	r19, 0x92	; 146
  f6:	79 41       	sbci	r23, 0x19	; 25
  f8:	3e 7e       	andi	r19, 0xEE	; 238
  fa:	11 11       	cpse	r17, r1
  fc:	11 7e       	andi	r17, 0xE1	; 225
  fe:	7f 49       	sbci	r23, 0x9F	; 159
 100:	49 49       	sbci	r20, 0x99	; 153
 102:	36 3e       	cpi	r19, 0xE6	; 230
 104:	41 41       	sbci	r20, 0x11	; 17
 106:	41 22       	and	r4, r17
 108:	7f 41       	sbci	r23, 0x1F	; 31
 10a:	41 22       	and	r4, r17
 10c:	1c 7f       	andi	r17, 0xFC	; 252
 10e:	49 49       	sbci	r20, 0x99	; 153
 110:	49 41       	sbci	r20, 0x19	; 25
 112:	7f 09       	sbc	r23, r15
 114:	09 01       	movw	r0, r18
 116:	01 3e       	cpi	r16, 0xE1	; 225
 118:	41 41       	sbci	r20, 0x11	; 17
 11a:	51 32       	cpi	r21, 0x21	; 33
 11c:	7f 08       	sbc	r7, r15
 11e:	08 08       	sbc	r0, r8
 120:	7f 00       	.word	0x007f	; ????
 122:	41 7f       	andi	r20, 0xF1	; 241
 124:	41 00       	.word	0x0041	; ????
 126:	20 40       	sbci	r18, 0x00	; 0
 128:	41 3f       	cpi	r20, 0xF1	; 241
 12a:	01 7f       	andi	r16, 0xF1	; 241
 12c:	08 14       	cp	r0, r8
 12e:	22 41       	sbci	r18, 0x12	; 18
 130:	7f 40       	sbci	r23, 0x0F	; 15
 132:	40 40       	sbci	r20, 0x00	; 0
 134:	40 7f       	andi	r20, 0xF0	; 240
 136:	02 04       	cpc	r0, r2
 138:	02 7f       	andi	r16, 0xF2	; 242
 13a:	7f 04       	cpc	r7, r15
 13c:	08 10       	cpse	r0, r8
 13e:	7f 3e       	cpi	r23, 0xEF	; 239
 140:	41 41       	sbci	r20, 0x11	; 17
 142:	41 3e       	cpi	r20, 0xE1	; 225
 144:	7f 09       	sbc	r23, r15
 146:	09 09       	sbc	r16, r9
 148:	06 3e       	cpi	r16, 0xE6	; 230
 14a:	41 51       	subi	r20, 0x11	; 17
 14c:	21 5e       	subi	r18, 0xE1	; 225
 14e:	7f 09       	sbc	r23, r15
 150:	19 29       	or	r17, r9
 152:	46 46       	sbci	r20, 0x66	; 102
 154:	49 49       	sbci	r20, 0x99	; 153
 156:	49 31       	cpi	r20, 0x19	; 25
 158:	01 01       	movw	r0, r2
 15a:	7f 01       	movw	r14, r30
 15c:	01 3f       	cpi	r16, 0xF1	; 241
 15e:	40 40       	sbci	r20, 0x00	; 0
 160:	40 3f       	cpi	r20, 0xF0	; 240
 162:	1f 20       	and	r1, r15
 164:	40 20       	and	r4, r0
 166:	1f 7f       	andi	r17, 0xFF	; 255
 168:	20 18       	sub	r2, r0
 16a:	20 7f       	andi	r18, 0xF0	; 240
 16c:	63 14       	cp	r6, r3
 16e:	08 14       	cp	r0, r8
 170:	63 03       	mulsu	r22, r19
 172:	04 78       	andi	r16, 0x84	; 132
 174:	04 03       	mulsu	r16, r20
 176:	61 51       	subi	r22, 0x11	; 17
 178:	49 45       	sbci	r20, 0x59	; 89
 17a:	43 00       	.word	0x0043	; ????
 17c:	00 7f       	andi	r16, 0xF0	; 240
 17e:	41 41       	sbci	r20, 0x11	; 17
 180:	02 04       	cpc	r0, r2
 182:	08 10       	cpse	r0, r8
 184:	20 41       	sbci	r18, 0x10	; 16
 186:	41 7f       	andi	r20, 0xF1	; 241
 188:	00 00       	nop
 18a:	04 02       	muls	r16, r20
 18c:	01 02       	muls	r16, r17
 18e:	04 40       	sbci	r16, 0x04	; 4
 190:	40 40       	sbci	r20, 0x00	; 0
 192:	40 40       	sbci	r20, 0x00	; 0
 194:	00 01       	movw	r0, r0
 196:	02 04       	cpc	r0, r2
 198:	00 20       	and	r0, r0
 19a:	54 54       	subi	r21, 0x44	; 68
 19c:	54 78       	andi	r21, 0x84	; 132
 19e:	7f 48       	sbci	r23, 0x8F	; 143
 1a0:	44 44       	sbci	r20, 0x44	; 68
 1a2:	38 38       	cpi	r19, 0x88	; 136
 1a4:	44 44       	sbci	r20, 0x44	; 68
 1a6:	44 20       	and	r4, r4
 1a8:	38 44       	sbci	r19, 0x48	; 72
 1aa:	44 48       	sbci	r20, 0x84	; 132
 1ac:	7f 38       	cpi	r23, 0x8F	; 143
 1ae:	54 54       	subi	r21, 0x44	; 68
 1b0:	54 18       	sub	r5, r4
 1b2:	08 7e       	andi	r16, 0xE8	; 232
 1b4:	09 01       	movw	r0, r18
 1b6:	02 08       	sbc	r0, r2
 1b8:	14 54       	subi	r17, 0x44	; 68
 1ba:	54 3c       	cpi	r21, 0xC4	; 196
 1bc:	7f 08       	sbc	r7, r15
 1be:	04 04       	cpc	r0, r4
 1c0:	78 00       	.word	0x0078	; ????
 1c2:	44 7d       	andi	r20, 0xD4	; 212
 1c4:	40 00       	.word	0x0040	; ????
 1c6:	20 40       	sbci	r18, 0x00	; 0
 1c8:	44 3d       	cpi	r20, 0xD4	; 212
 1ca:	00 00       	nop
 1cc:	7f 10       	cpse	r7, r15
 1ce:	28 44       	sbci	r18, 0x48	; 72
 1d0:	00 41       	sbci	r16, 0x10	; 16
 1d2:	7f 40       	sbci	r23, 0x0F	; 15
 1d4:	00 7c       	andi	r16, 0xC0	; 192
 1d6:	04 18       	sub	r0, r4
 1d8:	04 78       	andi	r16, 0x84	; 132
 1da:	7c 08       	sbc	r7, r12
 1dc:	04 04       	cpc	r0, r4
 1de:	78 38       	cpi	r23, 0x88	; 136
 1e0:	44 44       	sbci	r20, 0x44	; 68
 1e2:	44 38       	cpi	r20, 0x84	; 132
 1e4:	7c 14       	cp	r7, r12
 1e6:	14 14       	cp	r1, r4
 1e8:	08 08       	sbc	r0, r8
 1ea:	14 14       	cp	r1, r4
 1ec:	18 7c       	andi	r17, 0xC8	; 200
 1ee:	7c 08       	sbc	r7, r12
 1f0:	04 04       	cpc	r0, r4
 1f2:	08 48       	sbci	r16, 0x88	; 136
 1f4:	54 54       	subi	r21, 0x44	; 68
 1f6:	54 20       	and	r5, r4
 1f8:	04 3f       	cpi	r16, 0xF4	; 244
 1fa:	44 40       	sbci	r20, 0x04	; 4
 1fc:	20 3c       	cpi	r18, 0xC0	; 192
 1fe:	40 40       	sbci	r20, 0x00	; 0
 200:	20 7c       	andi	r18, 0xC0	; 192
 202:	1c 20       	and	r1, r12
 204:	40 20       	and	r4, r0
 206:	1c 3c       	cpi	r17, 0xCC	; 204
 208:	40 30       	cpi	r20, 0x00	; 0
 20a:	40 3c       	cpi	r20, 0xC0	; 192
 20c:	44 28       	or	r4, r4
 20e:	10 28       	or	r1, r0
 210:	44 0c       	add	r4, r4
 212:	50 50       	subi	r21, 0x00	; 0
 214:	50 3c       	cpi	r21, 0xC0	; 192
 216:	44 64       	ori	r20, 0x44	; 68
 218:	54 4c       	sbci	r21, 0xC4	; 196
 21a:	44 00       	.word	0x0044	; ????
 21c:	08 36       	cpi	r16, 0x68	; 104
 21e:	41 00       	.word	0x0041	; ????
 220:	00 00       	nop
 222:	7f 00       	.word	0x007f	; ????
 224:	00 00       	nop
 226:	41 36       	cpi	r20, 0x61	; 97
 228:	08 00       	.word	0x0008	; ????
 22a:	08 08       	sbc	r0, r8
 22c:	2a 1c       	adc	r2, r10
 22e:	08 08       	sbc	r0, r8
 230:	1c 2a       	or	r1, r28
 232:	08 08       	sbc	r0, r8

00000234 <__ctors_end>:
 234:	11 24       	eor	r1, r1
 236:	1f be       	out	0x3f, r1	; 63
 238:	cf e5       	ldi	r28, 0x5F	; 95
 23a:	d8 e0       	ldi	r29, 0x08	; 8
 23c:	de bf       	out	0x3e, r29	; 62
 23e:	cd bf       	out	0x3d, r28	; 61

00000240 <__do_copy_data>:
 240:	11 e0       	ldi	r17, 0x01	; 1
 242:	a0 e6       	ldi	r26, 0x60	; 96
 244:	b0 e0       	ldi	r27, 0x00	; 0
 246:	ec ea       	ldi	r30, 0xAC	; 172
 248:	f8 e0       	ldi	r31, 0x08	; 8
 24a:	02 c0       	rjmp	.+4      	; 0x250 <__do_copy_data+0x10>
 24c:	05 90       	lpm	r0, Z+
 24e:	0d 92       	st	X+, r0
 250:	a0 31       	cpi	r26, 0x10	; 16
 252:	b1 07       	cpc	r27, r17
 254:	d9 f7       	brne	.-10     	; 0x24c <__do_copy_data+0xc>

00000256 <__do_clear_bss>:
 256:	25 e0       	ldi	r18, 0x05	; 5
 258:	a0 e1       	ldi	r26, 0x10	; 16
 25a:	b1 e0       	ldi	r27, 0x01	; 1
 25c:	01 c0       	rjmp	.+2      	; 0x260 <.do_clear_bss_start>

0000025e <.do_clear_bss_loop>:
 25e:	1d 92       	st	X+, r1

00000260 <.do_clear_bss_start>:
 260:	a0 31       	cpi	r26, 0x10	; 16
 262:	b2 07       	cpc	r27, r18
 264:	e1 f7       	brne	.-8      	; 0x25e <.do_clear_bss_loop>
 266:	0e 94 42 04 	call	0x884	; 0x884 <main>
 26a:	0c 94 54 04 	jmp	0x8a8	; 0x8a8 <_exit>

0000026e <__bad_interrupt>:
 26e:	0c 94 00 00 	jmp	0	; 0x0 <__vectors>

00000272 <Epulse>:
{
	//todo
}

void simpson()
{
 272:	ac 9a       	sbi	0x15, 4	; 21
 274:	ac 98       	cbi	0x15, 4	; 21
 276:	08 95       	ret

00000278 <InitLCD>:
 278:	8f ef       	ldi	r24, 0xFF	; 255
 27a:	81 bb       	out	0x11, r24	; 17
 27c:	a0 9a       	sbi	0x14, 0	; 20
 27e:	a4 9a       	sbi	0x14, 4	; 20
 280:	a3 9a       	sbi	0x14, 3	; 20
 282:	a2 9a       	sbi	0x14, 2	; 20
 284:	a1 9a       	sbi	0x14, 1	; 20
 286:	a9 98       	cbi	0x15, 1	; 21
 288:	2f e7       	ldi	r18, 0x7F	; 127
 28a:	88 e3       	ldi	r24, 0x38	; 56
 28c:	91 e0       	ldi	r25, 0x01	; 1
 28e:	21 50       	subi	r18, 0x01	; 1
 290:	80 40       	sbci	r24, 0x00	; 0
 292:	90 40       	sbci	r25, 0x00	; 0
 294:	e1 f7       	brne	.-8      	; 0x28e <InitLCD+0x16>
 296:	00 c0       	rjmp	.+0      	; 0x298 <InitLCD+0x20>
 298:	00 00       	nop
 29a:	a9 9a       	sbi	0x15, 1	; 21
 29c:	2f e7       	ldi	r18, 0x7F	; 127
 29e:	88 e3       	ldi	r24, 0x38	; 56
 2a0:	91 e0       	ldi	r25, 0x01	; 1
 2a2:	21 50       	subi	r18, 0x01	; 1
 2a4:	80 40       	sbci	r24, 0x00	; 0
 2a6:	90 40       	sbci	r25, 0x00	; 0
 2a8:	e1 f7       	brne	.-8      	; 0x2a2 <InitLCD+0x2a>
 2aa:	00 c0       	rjmp	.+0      	; 0x2ac <InitLCD+0x34>
 2ac:	00 00       	nop
 2ae:	a8 98       	cbi	0x15, 0	; 21
 2b0:	ab 9a       	sbi	0x15, 3	; 21
 2b2:	aa 9a       	sbi	0x15, 2	; 21
 2b4:	8f e3       	ldi	r24, 0x3F	; 63
 2b6:	82 bb       	out	0x12, r24	; 18
 2b8:	0e 94 39 01 	call	0x272	; 0x272 <Epulse>
 2bc:	80 ec       	ldi	r24, 0xC0	; 192
 2be:	82 bb       	out	0x12, r24	; 18
 2c0:	0e 94 39 01 	call	0x272	; 0x272 <Epulse>
 2c4:	2f e7       	ldi	r18, 0x7F	; 127
 2c6:	88 e3       	ldi	r24, 0x38	; 56
 2c8:	91 e0       	ldi	r25, 0x01	; 1
 2ca:	21 50       	subi	r18, 0x01	; 1
 2cc:	80 40       	sbci	r24, 0x00	; 0
 2ce:	90 40       	sbci	r25, 0x00	; 0
 2d0:	e1 f7       	brne	.-8      	; 0x2ca <InitLCD+0x52>
 2d2:	00 c0       	rjmp	.+0      	; 0x2d4 <InitLCD+0x5c>
 2d4:	00 00       	nop
 2d6:	2f e7       	ldi	r18, 0x7F	; 127
 2d8:	88 e3       	ldi	r24, 0x38	; 56
 2da:	91 e0       	ldi	r25, 0x01	; 1
 2dc:	21 50       	subi	r18, 0x01	; 1
 2de:	80 40       	sbci	r24, 0x00	; 0
 2e0:	90 40       	sbci	r25, 0x00	; 0
 2e2:	e1 f7       	brne	.-8      	; 0x2dc <InitLCD+0x64>
 2e4:	00 c0       	rjmp	.+0      	; 0x2e6 <InitLCD+0x6e>
 2e6:	00 00       	nop
 2e8:	ab 98       	cbi	0x15, 3	; 21
 2ea:	aa 98       	cbi	0x15, 2	; 21
 2ec:	08 95       	ret

000002ee <PutPixel>:
 2ee:	0f 93       	push	r16
 2f0:	1f 93       	push	r17
 2f2:	cf 93       	push	r28
 2f4:	df 93       	push	r29
 2f6:	c8 2f       	mov	r28, r24
 2f8:	04 2f       	mov	r16, r20
 2fa:	68 30       	cpi	r22, 0x08	; 8
 2fc:	68 f0       	brcs	.+26     	; 0x318 <PutPixel+0x2a>
 2fe:	86 2f       	mov	r24, r22
 300:	88 50       	subi	r24, 0x08	; 8
 302:	88 30       	cpi	r24, 0x08	; 8
 304:	e8 f7       	brcc	.-6      	; 0x300 <PutPixel+0x12>
 306:	16 2f       	mov	r17, r22
 308:	17 70       	andi	r17, 0x07	; 7
 30a:	d8 ef       	ldi	r29, 0xF8	; 248
 30c:	d6 0f       	add	r29, r22
 30e:	d6 95       	lsr	r29
 310:	d6 95       	lsr	r29
 312:	d6 95       	lsr	r29
 314:	df 5f       	subi	r29, 0xFF	; 255
 316:	02 c0       	rjmp	.+4      	; 0x31c <PutPixel+0x2e>
 318:	16 2f       	mov	r17, r22
 31a:	d0 e0       	ldi	r29, 0x00	; 0
 31c:	c0 34       	cpi	r28, 0x40	; 64
 31e:	80 f4       	brcc	.+32     	; 0x340 <PutPixel+0x52>
 320:	a8 98       	cbi	0x15, 0	; 21
 322:	ab 9a       	sbi	0x15, 3	; 21
 324:	aa 98       	cbi	0x15, 2	; 21
 326:	d7 70       	andi	r29, 0x07	; 7
 328:	8d 2f       	mov	r24, r29
 32a:	88 6b       	ori	r24, 0xB8	; 184
 32c:	82 bb       	out	0x12, r24	; 18
 32e:	0e 94 39 01 	call	0x272	; 0x272 <Epulse>
 332:	cf 73       	andi	r28, 0x3F	; 63
 334:	8c 2f       	mov	r24, r28
 336:	80 64       	ori	r24, 0x40	; 64
 338:	82 bb       	out	0x12, r24	; 18
 33a:	0e 94 39 01 	call	0x272	; 0x272 <Epulse>
 33e:	11 c0       	rjmp	.+34     	; 0x362 <PutPixel+0x74>
 340:	c0 54       	subi	r28, 0x40	; 64
 342:	a8 98       	cbi	0x15, 0	; 21
 344:	ab 98       	cbi	0x15, 3	; 21
 346:	aa 9a       	sbi	0x15, 2	; 21
 348:	d7 70       	andi	r29, 0x07	; 7
 34a:	8d 2f       	mov	r24, r29
 34c:	88 6b       	ori	r24, 0xB8	; 184
 34e:	82 bb       	out	0x12, r24	; 18
 350:	0e 94 39 01 	call	0x272	; 0x272 <Epulse>
 354:	cf 73       	andi	r28, 0x3F	; 63
 356:	8c 2f       	mov	r24, r28
 358:	80 64       	ori	r24, 0x40	; 64
 35a:	82 bb       	out	0x12, r24	; 18
 35c:	0e 94 39 01 	call	0x272	; 0x272 <Epulse>
 360:	c0 5c       	subi	r28, 0xC0	; 192
 362:	a8 9a       	sbi	0x15, 0	; 21
 364:	01 30       	cpi	r16, 0x01	; 1
 366:	d1 f4       	brne	.+52     	; 0x39c <PutPixel+0xae>
 368:	ec 2f       	mov	r30, r28
 36a:	f0 e0       	ldi	r31, 0x00	; 0
 36c:	ee 0f       	add	r30, r30
 36e:	ff 1f       	adc	r31, r31
 370:	ee 0f       	add	r30, r30
 372:	ff 1f       	adc	r31, r31
 374:	ee 0f       	add	r30, r30
 376:	ff 1f       	adc	r31, r31
 378:	e0 5f       	subi	r30, 0xF0	; 240
 37a:	fe 4f       	sbci	r31, 0xFE	; 254
 37c:	ed 0f       	add	r30, r29
 37e:	f1 1d       	adc	r31, r1
 380:	81 e0       	ldi	r24, 0x01	; 1
 382:	90 e0       	ldi	r25, 0x00	; 0
 384:	02 c0       	rjmp	.+4      	; 0x38a <PutPixel+0x9c>
 386:	88 0f       	add	r24, r24
 388:	99 1f       	adc	r25, r25
 38a:	1a 95       	dec	r17
 38c:	e2 f7       	brpl	.-8      	; 0x386 <PutPixel+0x98>
 38e:	90 81       	ld	r25, Z
 390:	89 2b       	or	r24, r25
 392:	80 83       	st	Z, r24
 394:	82 bb       	out	0x12, r24	; 18
 396:	0e 94 39 01 	call	0x272	; 0x272 <Epulse>
 39a:	1a c0       	rjmp	.+52     	; 0x3d0 <PutPixel+0xe2>
 39c:	ec 2f       	mov	r30, r28
 39e:	f0 e0       	ldi	r31, 0x00	; 0
 3a0:	81 e0       	ldi	r24, 0x01	; 1
 3a2:	90 e0       	ldi	r25, 0x00	; 0
 3a4:	02 c0       	rjmp	.+4      	; 0x3aa <PutPixel+0xbc>
 3a6:	88 0f       	add	r24, r24
 3a8:	99 1f       	adc	r25, r25
 3aa:	1a 95       	dec	r17
 3ac:	e2 f7       	brpl	.-8      	; 0x3a6 <PutPixel+0xb8>
 3ae:	80 95       	com	r24
 3b0:	ee 0f       	add	r30, r30
 3b2:	ff 1f       	adc	r31, r31
 3b4:	ee 0f       	add	r30, r30
 3b6:	ff 1f       	adc	r31, r31
 3b8:	ee 0f       	add	r30, r30
 3ba:	ff 1f       	adc	r31, r31
 3bc:	e0 5f       	subi	r30, 0xF0	; 240
 3be:	fe 4f       	sbci	r31, 0xFE	; 254
 3c0:	ed 0f       	add	r30, r29
 3c2:	f1 1d       	adc	r31, r1
 3c4:	90 81       	ld	r25, Z
 3c6:	89 23       	and	r24, r25
 3c8:	80 83       	st	Z, r24
 3ca:	82 bb       	out	0x12, r24	; 18
 3cc:	0e 94 39 01 	call	0x272	; 0x272 <Epulse>
 3d0:	df 91       	pop	r29
 3d2:	cf 91       	pop	r28
 3d4:	1f 91       	pop	r17
 3d6:	0f 91       	pop	r16
 3d8:	08 95       	ret

000003da <LCD_Clear>:
 3da:	ff 92       	push	r15
 3dc:	0f 93       	push	r16
 3de:	1f 93       	push	r17
 3e0:	cf 93       	push	r28
 3e2:	df 93       	push	r29
 3e4:	00 e0       	ldi	r16, 0x00	; 0
 3e6:	10 e0       	ldi	r17, 0x00	; 0
 3e8:	f1 2c       	mov	r15, r1
 3ea:	3b c0       	rjmp	.+118    	; 0x462 <__LOCK_REGION_LENGTH__+0x62>
 3ec:	ec 2f       	mov	r30, r28
 3ee:	f0 e0       	ldi	r31, 0x00	; 0
 3f0:	ee 0f       	add	r30, r30
 3f2:	ff 1f       	adc	r31, r31
 3f4:	ee 0f       	add	r30, r30
 3f6:	ff 1f       	adc	r31, r31
 3f8:	ee 0f       	add	r30, r30
 3fa:	ff 1f       	adc	r31, r31
 3fc:	e0 5f       	subi	r30, 0xF0	; 240
 3fe:	fe 4f       	sbci	r31, 0xFE	; 254
 400:	e0 0f       	add	r30, r16
 402:	f1 1f       	adc	r31, r17
 404:	10 82       	st	Z, r1
 406:	c0 34       	cpi	r28, 0x40	; 64
 408:	80 f4       	brcc	.+32     	; 0x42a <__LOCK_REGION_LENGTH__+0x2a>
 40a:	a8 98       	cbi	0x15, 0	; 21
 40c:	ab 9a       	sbi	0x15, 3	; 21
 40e:	aa 98       	cbi	0x15, 2	; 21
 410:	d7 70       	andi	r29, 0x07	; 7
 412:	8d 2f       	mov	r24, r29
 414:	88 6b       	ori	r24, 0xB8	; 184
 416:	82 bb       	out	0x12, r24	; 18
 418:	0e 94 39 01 	call	0x272	; 0x272 <Epulse>
 41c:	cf 73       	andi	r28, 0x3F	; 63
 41e:	8c 2f       	mov	r24, r28
 420:	80 64       	ori	r24, 0x40	; 64
 422:	82 bb       	out	0x12, r24	; 18
 424:	0e 94 39 01 	call	0x272	; 0x272 <Epulse>
 428:	11 c0       	rjmp	.+34     	; 0x44c <__LOCK_REGION_LENGTH__+0x4c>
 42a:	c0 54       	subi	r28, 0x40	; 64
 42c:	a8 98       	cbi	0x15, 0	; 21
 42e:	ab 98       	cbi	0x15, 3	; 21
 430:	aa 9a       	sbi	0x15, 2	; 21
 432:	d7 70       	andi	r29, 0x07	; 7
 434:	8d 2f       	mov	r24, r29
 436:	88 6b       	ori	r24, 0xB8	; 184
 438:	82 bb       	out	0x12, r24	; 18
 43a:	0e 94 39 01 	call	0x272	; 0x272 <Epulse>
 43e:	cf 73       	andi	r28, 0x3F	; 63
 440:	8c 2f       	mov	r24, r28
 442:	80 64       	ori	r24, 0x40	; 64
 444:	82 bb       	out	0x12, r24	; 18
 446:	0e 94 39 01 	call	0x272	; 0x272 <Epulse>
 44a:	c0 5c       	subi	r28, 0xC0	; 192
 44c:	a8 9a       	sbi	0x15, 0	; 21
 44e:	12 ba       	out	0x12, r1	; 18
 450:	0e 94 39 01 	call	0x272	; 0x272 <Epulse>
 454:	cf 5f       	subi	r28, 0xFF	; 255
 456:	52 f6       	brpl	.-108    	; 0x3ec <LCD_Clear+0x12>
 458:	0f 5f       	subi	r16, 0xFF	; 255
 45a:	1f 4f       	sbci	r17, 0xFF	; 255
 45c:	08 30       	cpi	r16, 0x08	; 8
 45e:	11 05       	cpc	r17, r1
 460:	19 f0       	breq	.+6      	; 0x468 <__LOCK_REGION_LENGTH__+0x68>
 462:	d0 2f       	mov	r29, r16
 464:	cf 2d       	mov	r28, r15
 466:	c2 cf       	rjmp	.-124    	; 0x3ec <LCD_Clear+0x12>
 468:	df 91       	pop	r29
 46a:	cf 91       	pop	r28
 46c:	1f 91       	pop	r17
 46e:	0f 91       	pop	r16
 470:	ff 90       	pop	r15
 472:	08 95       	ret

00000474 <DisplayChar>:
 474:	cf 92       	push	r12
 476:	df 92       	push	r13
 478:	ef 92       	push	r14
 47a:	ff 92       	push	r15
 47c:	0f 93       	push	r16
 47e:	1f 93       	push	r17
 480:	cf 93       	push	r28
 482:	df 93       	push	r29
 484:	d6 2e       	mov	r13, r22
 486:	40 52       	subi	r20, 0x20	; 32
 488:	24 2f       	mov	r18, r20
 48a:	30 e0       	ldi	r19, 0x00	; 0
 48c:	89 01       	movw	r16, r18
 48e:	00 0f       	add	r16, r16
 490:	11 1f       	adc	r17, r17
 492:	00 0f       	add	r16, r16
 494:	11 1f       	adc	r17, r17
 496:	02 0f       	add	r16, r18
 498:	13 1f       	adc	r17, r19
 49a:	0c 5a       	subi	r16, 0xAC	; 172
 49c:	1f 4f       	sbci	r17, 0xFF	; 255
 49e:	0f 2e       	mov	r0, r31
 4a0:	f5 e0       	ldi	r31, 0x05	; 5
 4a2:	cf 2e       	mov	r12, r31
 4a4:	f0 2d       	mov	r31, r0
 4a6:	c8 0e       	add	r12, r24
 4a8:	e8 2e       	mov	r14, r24
 4aa:	18 c0       	rjmp	.+48     	; 0x4dc <DisplayChar+0x68>
 4ac:	f8 01       	movw	r30, r16
 4ae:	44 91       	lpm	r20, Z
 4b0:	50 e0       	ldi	r21, 0x00	; 0
 4b2:	0c 2e       	mov	r0, r28
 4b4:	02 c0       	rjmp	.+4      	; 0x4ba <DisplayChar+0x46>
 4b6:	55 95       	asr	r21
 4b8:	47 95       	ror	r20
 4ba:	0a 94       	dec	r0
 4bc:	e2 f7       	brpl	.-8      	; 0x4b6 <DisplayChar+0x42>
 4be:	41 70       	andi	r20, 0x01	; 1
 4c0:	6f 2d       	mov	r22, r15
 4c2:	8e 2d       	mov	r24, r14
 4c4:	0e 94 77 01 	call	0x2ee	; 0x2ee <PutPixel>
 4c8:	21 96       	adiw	r28, 0x01	; 1
 4ca:	f3 94       	inc	r15
 4cc:	c8 30       	cpi	r28, 0x08	; 8
 4ce:	d1 05       	cpc	r29, r1
 4d0:	69 f7       	brne	.-38     	; 0x4ac <DisplayChar+0x38>
 4d2:	0f 5f       	subi	r16, 0xFF	; 255
 4d4:	1f 4f       	sbci	r17, 0xFF	; 255
 4d6:	e3 94       	inc	r14
 4d8:	ce 14       	cp	r12, r14
 4da:	21 f0       	breq	.+8      	; 0x4e4 <DisplayChar+0x70>
 4dc:	fd 2c       	mov	r15, r13
 4de:	c0 e0       	ldi	r28, 0x00	; 0
 4e0:	d0 e0       	ldi	r29, 0x00	; 0
 4e2:	e4 cf       	rjmp	.-56     	; 0x4ac <DisplayChar+0x38>
 4e4:	df 91       	pop	r29
 4e6:	cf 91       	pop	r28
 4e8:	1f 91       	pop	r17
 4ea:	0f 91       	pop	r16
 4ec:	ff 90       	pop	r15
 4ee:	ef 90       	pop	r14
 4f0:	df 90       	pop	r13
 4f2:	cf 90       	pop	r12
 4f4:	08 95       	ret

000004f6 <DisplayText>:
 4f6:	ef 92       	push	r14
 4f8:	ff 92       	push	r15
 4fa:	0f 93       	push	r16
 4fc:	1f 93       	push	r17
 4fe:	cf 93       	push	r28
 500:	df 93       	push	r29
 502:	fa 01       	movw	r30, r20
 504:	01 90       	ld	r0, Z+
 506:	00 20       	and	r0, r0
 508:	e9 f7       	brne	.-6      	; 0x504 <DisplayText+0xe>
 50a:	31 97       	sbiw	r30, 0x01	; 1
 50c:	e4 1b       	sub	r30, r20
 50e:	f5 0b       	sbc	r31, r21
 510:	1e 16       	cp	r1, r30
 512:	1f 06       	cpc	r1, r31
 514:	8c f4       	brge	.+34     	; 0x538 <DisplayText+0x42>
 516:	d6 2f       	mov	r29, r22
 518:	8a 01       	movw	r16, r20
 51a:	7a 01       	movw	r14, r20
 51c:	ee 0e       	add	r14, r30
 51e:	ff 1e       	adc	r15, r31
 520:	c8 2f       	mov	r28, r24
 522:	f8 01       	movw	r30, r16
 524:	41 91       	ld	r20, Z+
 526:	8f 01       	movw	r16, r30
 528:	6d 2f       	mov	r22, r29
 52a:	8c 2f       	mov	r24, r28
 52c:	0e 94 3a 02 	call	0x474	; 0x474 <DisplayChar>
 530:	ca 5f       	subi	r28, 0xFA	; 250
 532:	0e 15       	cp	r16, r14
 534:	1f 05       	cpc	r17, r15
 536:	a9 f7       	brne	.-22     	; 0x522 <DisplayText+0x2c>
 538:	df 91       	pop	r29
 53a:	cf 91       	pop	r28
 53c:	1f 91       	pop	r17
 53e:	0f 91       	pop	r16
 540:	ff 90       	pop	r15
 542:	ef 90       	pop	r14
 544:	08 95       	ret

00000546 <initial_page>:
 546:	cf 93       	push	r28
 548:	df 93       	push	r29
 54a:	cd b7       	in	r28, 0x3d	; 61
 54c:	de b7       	in	r29, 0x3e	; 62
 54e:	c0 54       	subi	r28, 0x40	; 64
 550:	d1 09       	sbc	r29, r1
 552:	0f b6       	in	r0, 0x3f	; 63
 554:	f8 94       	cli
 556:	de bf       	out	0x3e, r29	; 62
 558:	0f be       	out	0x3f, r0	; 63
 55a:	cd bf       	out	0x3d, r28	; 61
 55c:	8d e0       	ldi	r24, 0x0D	; 13
 55e:	e0 ed       	ldi	r30, 0xD0	; 208
 560:	f0 e0       	ldi	r31, 0x00	; 0
 562:	de 01       	movw	r26, r28
 564:	11 96       	adiw	r26, 0x01	; 1
 566:	01 90       	ld	r0, Z+
 568:	0d 92       	st	X+, r0
 56a:	8a 95       	dec	r24
 56c:	e1 f7       	brne	.-8      	; 0x566 <initial_page+0x20>
 56e:	ae 01       	movw	r20, r28
 570:	4f 5f       	subi	r20, 0xFF	; 255
 572:	5f 4f       	sbci	r21, 0xFF	; 255
 574:	61 e0       	ldi	r22, 0x01	; 1
 576:	81 e0       	ldi	r24, 0x01	; 1
 578:	0e 94 7b 02 	call	0x4f6	; 0x4f6 <DisplayText>
 57c:	84 e1       	ldi	r24, 0x14	; 20
 57e:	ed ed       	ldi	r30, 0xDD	; 221
 580:	f0 e0       	ldi	r31, 0x00	; 0
 582:	de 01       	movw	r26, r28
 584:	1e 96       	adiw	r26, 0x0e	; 14
 586:	01 90       	ld	r0, Z+
 588:	0d 92       	st	X+, r0
 58a:	8a 95       	dec	r24
 58c:	e1 f7       	brne	.-8      	; 0x586 <initial_page+0x40>
 58e:	ae 01       	movw	r20, r28
 590:	42 5f       	subi	r20, 0xF2	; 242
 592:	5f 4f       	sbci	r21, 0xFF	; 255
 594:	6c e0       	ldi	r22, 0x0C	; 12
 596:	81 e0       	ldi	r24, 0x01	; 1
 598:	0e 94 7b 02 	call	0x4f6	; 0x4f6 <DisplayText>
 59c:	81 e1       	ldi	r24, 0x11	; 17
 59e:	e1 ef       	ldi	r30, 0xF1	; 241
 5a0:	f0 e0       	ldi	r31, 0x00	; 0
 5a2:	de 01       	movw	r26, r28
 5a4:	92 96       	adiw	r26, 0x22	; 34
 5a6:	01 90       	ld	r0, Z+
 5a8:	0d 92       	st	X+, r0
 5aa:	8a 95       	dec	r24
 5ac:	e1 f7       	brne	.-8      	; 0x5a6 <initial_page+0x60>
 5ae:	ae 01       	movw	r20, r28
 5b0:	4e 5d       	subi	r20, 0xDE	; 222
 5b2:	5f 4f       	sbci	r21, 0xFF	; 255
 5b4:	68 e1       	ldi	r22, 0x18	; 24
 5b6:	81 e0       	ldi	r24, 0x01	; 1
 5b8:	0e 94 7b 02 	call	0x4f6	; 0x4f6 <DisplayText>
 5bc:	8e e0       	ldi	r24, 0x0E	; 14
 5be:	e2 e0       	ldi	r30, 0x02	; 2
 5c0:	f1 e0       	ldi	r31, 0x01	; 1
 5c2:	de 01       	movw	r26, r28
 5c4:	d3 96       	adiw	r26, 0x33	; 51
 5c6:	01 90       	ld	r0, Z+
 5c8:	0d 92       	st	X+, r0
 5ca:	8a 95       	dec	r24
 5cc:	e1 f7       	brne	.-8      	; 0x5c6 <initial_page+0x80>
 5ce:	ae 01       	movw	r20, r28
 5d0:	4d 5c       	subi	r20, 0xCD	; 205
 5d2:	5f 4f       	sbci	r21, 0xFF	; 255
 5d4:	64 e2       	ldi	r22, 0x24	; 36
 5d6:	81 e0       	ldi	r24, 0x01	; 1
 5d8:	0e 94 7b 02 	call	0x4f6	; 0x4f6 <DisplayText>
 5dc:	c0 5c       	subi	r28, 0xC0	; 192
 5de:	df 4f       	sbci	r29, 0xFF	; 255
 5e0:	0f b6       	in	r0, 0x3f	; 63
 5e2:	f8 94       	cli
 5e4:	de bf       	out	0x3e, r29	; 62
 5e6:	0f be       	out	0x3f, r0	; 63
 5e8:	cd bf       	out	0x3d, r28	; 61
 5ea:	df 91       	pop	r29
 5ec:	cf 91       	pop	r28
 5ee:	08 95       	ret

000005f0 <mode_selector>:
 5f0:	cf 93       	push	r28
 5f2:	a1 e0       	ldi	r26, 0x01	; 1
 5f4:	b0 e0       	ldi	r27, 0x00	; 0
 5f6:	64 e0       	ldi	r22, 0x04	; 4
 5f8:	70 e0       	ldi	r23, 0x00	; 0
 5fa:	cd 01       	movw	r24, r26
 5fc:	06 2e       	mov	r0, r22
 5fe:	02 c0       	rjmp	.+4      	; 0x604 <mode_selector+0x14>
 600:	88 0f       	add	r24, r24
 602:	99 1f       	adc	r25, r25
 604:	0a 94       	dec	r0
 606:	e2 f7       	brpl	.-8      	; 0x600 <mode_selector+0x10>
 608:	88 bb       	out	0x18, r24	; 24
 60a:	cb 01       	movw	r24, r22
 60c:	04 97       	sbiw	r24, 0x04	; 4
 60e:	fc 01       	movw	r30, r24
 610:	e0 54       	subi	r30, 0x40	; 64
 612:	ff 4f       	sbci	r31, 0xFF	; 255
 614:	20 e0       	ldi	r18, 0x00	; 0
 616:	30 e0       	ldi	r19, 0x00	; 0
 618:	c8 2f       	mov	r28, r24
 61a:	59 2f       	mov	r21, r25
 61c:	86 b3       	in	r24, 0x16	; 22
 61e:	90 e0       	ldi	r25, 0x00	; 0
 620:	02 2e       	mov	r0, r18
 622:	02 c0       	rjmp	.+4      	; 0x628 <mode_selector+0x38>
 624:	95 95       	asr	r25
 626:	87 95       	ror	r24
 628:	0a 94       	dec	r0
 62a:	e2 f7       	brpl	.-8      	; 0x624 <mode_selector+0x34>
 62c:	80 ff       	sbrs	r24, 0
 62e:	23 c0       	rjmp	.+70     	; 0x676 <mode_selector+0x86>
 630:	8c 2f       	mov	r24, r28
 632:	95 2f       	mov	r25, r21
 634:	40 81       	ld	r20, Z
 636:	41 53       	subi	r20, 0x31	; 49
 638:	44 30       	cpi	r20, 0x04	; 4
 63a:	a0 f4       	brcc	.+40     	; 0x664 <mode_selector+0x74>
 63c:	4f ef       	ldi	r20, 0xFF	; 255
 63e:	54 e3       	ldi	r21, 0x34	; 52
 640:	6c e0       	ldi	r22, 0x0C	; 12
 642:	41 50       	subi	r20, 0x01	; 1
 644:	50 40       	sbci	r21, 0x00	; 0
 646:	60 40       	sbci	r22, 0x00	; 0
 648:	e1 f7       	brne	.-8      	; 0x642 <mode_selector+0x52>
 64a:	00 c0       	rjmp	.+0      	; 0x64c <mode_selector+0x5c>
 64c:	00 00       	nop
 64e:	22 0f       	add	r18, r18
 650:	33 1f       	adc	r19, r19
 652:	22 0f       	add	r18, r18
 654:	33 1f       	adc	r19, r19
 656:	20 54       	subi	r18, 0x40	; 64
 658:	3f 4f       	sbci	r19, 0xFF	; 255
 65a:	f9 01       	movw	r30, r18
 65c:	e8 0f       	add	r30, r24
 65e:	f9 1f       	adc	r31, r25
 660:	80 81       	ld	r24, Z
 662:	1c c0       	rjmp	.+56     	; 0x69c <mode_selector+0xac>
 664:	8f ef       	ldi	r24, 0xFF	; 255
 666:	94 e3       	ldi	r25, 0x34	; 52
 668:	4c e0       	ldi	r20, 0x0C	; 12
 66a:	81 50       	subi	r24, 0x01	; 1
 66c:	90 40       	sbci	r25, 0x00	; 0
 66e:	40 40       	sbci	r20, 0x00	; 0
 670:	e1 f7       	brne	.-8      	; 0x66a <mode_selector+0x7a>
 672:	00 c0       	rjmp	.+0      	; 0x674 <mode_selector+0x84>
 674:	00 00       	nop
 676:	2f 5f       	subi	r18, 0xFF	; 255
 678:	3f 4f       	sbci	r19, 0xFF	; 255
 67a:	34 96       	adiw	r30, 0x04	; 4
 67c:	24 30       	cpi	r18, 0x04	; 4
 67e:	31 05       	cpc	r19, r1
 680:	69 f6       	brne	.-102    	; 0x61c <mode_selector+0x2c>
 682:	8f e1       	ldi	r24, 0x1F	; 31
 684:	9e e4       	ldi	r25, 0x4E	; 78
 686:	01 97       	sbiw	r24, 0x01	; 1
 688:	f1 f7       	brne	.-4      	; 0x686 <mode_selector+0x96>
 68a:	00 c0       	rjmp	.+0      	; 0x68c <mode_selector+0x9c>
 68c:	00 00       	nop
 68e:	6f 5f       	subi	r22, 0xFF	; 255
 690:	7f 4f       	sbci	r23, 0xFF	; 255
 692:	68 30       	cpi	r22, 0x08	; 8
 694:	71 05       	cpc	r23, r1
 696:	09 f0       	breq	.+2      	; 0x69a <mode_selector+0xaa>
 698:	b0 cf       	rjmp	.-160    	; 0x5fa <mode_selector+0xa>
 69a:	ad cf       	rjmp	.-166    	; 0x5f6 <mode_selector+0x6>
 69c:	cf 91       	pop	r28
 69e:	08 95       	ret

000006a0 <append>:
 6a0:	9c 01       	movw	r18, r24
 6a2:	fa 01       	movw	r30, r20
 6a4:	90 81       	ld	r25, Z
 6a6:	99 23       	and	r25, r25
 6a8:	51 f0       	breq	.+20     	; 0x6be <append+0x1e>
 6aa:	d9 01       	movw	r26, r18
 6ac:	a6 0f       	add	r26, r22
 6ae:	b7 1f       	adc	r27, r23
 6b0:	31 96       	adiw	r30, 0x01	; 1
 6b2:	9d 93       	st	X+, r25
 6b4:	6f 5f       	subi	r22, 0xFF	; 255
 6b6:	7f 4f       	sbci	r23, 0xFF	; 255
 6b8:	91 91       	ld	r25, Z+
 6ba:	91 11       	cpse	r25, r1
 6bc:	fa cf       	rjmp	.-12     	; 0x6b2 <append+0x12>
 6be:	f9 01       	movw	r30, r18
 6c0:	e6 0f       	add	r30, r22
 6c2:	f7 1f       	adc	r31, r23
 6c4:	10 82       	st	Z, r1
 6c6:	08 95       	ret

000006c8 <calculator>:
 6c8:	cf 93       	push	r28
 6ca:	df 93       	push	r29
 6cc:	cd b7       	in	r28, 0x3d	; 61
 6ce:	de b7       	in	r29, 0x3e	; 62
 6d0:	e6 97       	sbiw	r28, 0x36	; 54
 6d2:	0f b6       	in	r0, 0x3f	; 63
 6d4:	f8 94       	cli
 6d6:	de bf       	out	0x3e, r29	; 62
 6d8:	0f be       	out	0x3f, r0	; 63
 6da:	cd bf       	out	0x3d, r28	; 61
 6dc:	0e 94 ed 01 	call	0x3da	; 0x3da <LCD_Clear>
 6e0:	88 24       	eor	r8, r8
 6e2:	83 94       	inc	r8
 6e4:	91 2c       	mov	r9, r1
 6e6:	e1 2c       	mov	r14, r1
 6e8:	f1 2c       	mov	r15, r1
 6ea:	ce 01       	movw	r24, r28
 6ec:	01 96       	adiw	r24, 0x01	; 1
 6ee:	2c 01       	movw	r4, r24
 6f0:	8b ab       	std	Y+51, r24	; 0x33
 6f2:	5c aa       	std	Y+52, r5	; 0x34
 6f4:	0f 2e       	mov	r0, r31
 6f6:	f0 e6       	ldi	r31, 0x60	; 96
 6f8:	2f 2e       	mov	r2, r31
 6fa:	f0 e0       	ldi	r31, 0x00	; 0
 6fc:	3f 2e       	mov	r3, r31
 6fe:	f0 2d       	mov	r31, r0
 700:	68 94       	set
 702:	66 24       	eor	r6, r6
 704:	62 f8       	bld	r6, 2
 706:	71 2c       	mov	r7, r1
 708:	81 e0       	ldi	r24, 0x01	; 1
 70a:	90 e0       	ldi	r25, 0x00	; 0
 70c:	06 2c       	mov	r0, r6
 70e:	02 c0       	rjmp	.+4      	; 0x714 <calculator+0x4c>
 710:	88 0f       	add	r24, r24
 712:	99 1f       	adc	r25, r25
 714:	0a 94       	dec	r0
 716:	e2 f7       	brpl	.-8      	; 0x710 <calculator+0x48>
 718:	88 bb       	out	0x18, r24	; 24
 71a:	8b bb       	out	0x1b, r24	; 27
 71c:	f3 01       	movw	r30, r6
 71e:	e4 54       	subi	r30, 0x44	; 68
 720:	ff 4f       	sbci	r31, 0xFF	; 255
 722:	6f 01       	movw	r12, r30
 724:	51 01       	movw	r10, r2
 726:	00 e0       	ldi	r16, 0x00	; 0
 728:	10 e0       	ldi	r17, 0x00	; 0
 72a:	86 b3       	in	r24, 0x16	; 22
 72c:	90 e0       	ldi	r25, 0x00	; 0
 72e:	00 2e       	mov	r0, r16
 730:	02 c0       	rjmp	.+4      	; 0x736 <calculator+0x6e>
 732:	95 95       	asr	r25
 734:	87 95       	ror	r24
 736:	0a 94       	dec	r0
 738:	e2 f7       	brpl	.-8      	; 0x732 <calculator+0x6a>
 73a:	80 ff       	sbrs	r24, 0
 73c:	38 c0       	rjmp	.+112    	; 0x7ae <calculator+0xe6>
 73e:	f6 01       	movw	r30, r12
 740:	80 81       	ld	r24, Z
 742:	83 34       	cpi	r24, 0x43	; 67
 744:	79 f4       	brne	.+30     	; 0x764 <calculator+0x9c>
 746:	19 82       	std	Y+1, r1	; 0x01
 748:	0e 94 ed 01 	call	0x3da	; 0x3da <LCD_Clear>
 74c:	4b a9       	ldd	r20, Y+51	; 0x33
 74e:	5c a9       	ldd	r21, Y+52	; 0x34
 750:	61 e0       	ldi	r22, 0x01	; 1
 752:	81 e0       	ldi	r24, 0x01	; 1
 754:	0e 94 7b 02 	call	0x4f6	; 0x4f6 <DisplayText>
 758:	88 24       	eor	r8, r8
 75a:	83 94       	inc	r8
 75c:	91 2c       	mov	r9, r1
 75e:	e1 2c       	mov	r14, r1
 760:	f1 2c       	mov	r15, r1
 762:	1b c0       	rjmp	.+54     	; 0x79a <calculator+0xd2>
 764:	f2 01       	movw	r30, r4
 766:	ee 0d       	add	r30, r14
 768:	ff 1d       	adc	r31, r15
 76a:	80 83       	st	Z, r24
 76c:	ff ef       	ldi	r31, 0xFF	; 255
 76e:	ef 1a       	sub	r14, r31
 770:	ff 0a       	sbc	r15, r31
 772:	f2 01       	movw	r30, r4
 774:	ee 0d       	add	r30, r14
 776:	ff 1d       	adc	r31, r15
 778:	10 82       	st	Z, r1
 77a:	4b a9       	ldd	r20, Y+51	; 0x33
 77c:	5c a9       	ldd	r21, Y+52	; 0x34
 77e:	68 2d       	mov	r22, r8
 780:	81 e0       	ldi	r24, 0x01	; 1
 782:	0e 94 7b 02 	call	0x4f6	; 0x4f6 <DisplayText>
 786:	24 e1       	ldi	r18, 0x14	; 20
 788:	e2 16       	cp	r14, r18
 78a:	f1 04       	cpc	r15, r1
 78c:	31 f4       	brne	.+12     	; 0x79a <calculator+0xd2>
 78e:	8c e0       	ldi	r24, 0x0C	; 12
 790:	88 0e       	add	r8, r24
 792:	91 1c       	adc	r9, r1
 794:	19 82       	std	Y+1, r1	; 0x01
 796:	e1 2c       	mov	r14, r1
 798:	f1 2c       	mov	r15, r1
 79a:	9f ef       	ldi	r25, 0xFF	; 255
 79c:	e4 e3       	ldi	r30, 0x34	; 52
 79e:	fc e0       	ldi	r31, 0x0C	; 12
 7a0:	91 50       	subi	r25, 0x01	; 1
 7a2:	e0 40       	sbci	r30, 0x00	; 0
 7a4:	f0 40       	sbci	r31, 0x00	; 0
 7a6:	e1 f7       	brne	.-8      	; 0x7a0 <calculator+0xd8>
 7a8:	00 c0       	rjmp	.+0      	; 0x7aa <calculator+0xe2>
 7aa:	00 00       	nop
 7ac:	4d c0       	rjmp	.+154    	; 0x848 <calculator+0x180>
 7ae:	89 b3       	in	r24, 0x19	; 25
 7b0:	90 e0       	ldi	r25, 0x00	; 0
 7b2:	00 2e       	mov	r0, r16
 7b4:	02 c0       	rjmp	.+4      	; 0x7ba <calculator+0xf2>
 7b6:	95 95       	asr	r25
 7b8:	87 95       	ror	r24
 7ba:	0a 94       	dec	r0
 7bc:	e2 f7       	brpl	.-8      	; 0x7b6 <calculator+0xee>
 7be:	80 ff       	sbrs	r24, 0
 7c0:	43 c0       	rjmp	.+134    	; 0x848 <calculator+0x180>
 7c2:	f5 01       	movw	r30, r10
 7c4:	80 81       	ld	r24, Z
 7c6:	8c 33       	cpi	r24, 0x3C	; 60
 7c8:	c1 f4       	brne	.+48     	; 0x7fa <calculator+0x132>
 7ca:	e1 14       	cp	r14, r1
 7cc:	f1 04       	cpc	r15, r1
 7ce:	e1 f1       	breq	.+120    	; 0x848 <calculator+0x180>
 7d0:	f1 e0       	ldi	r31, 0x01	; 1
 7d2:	ef 1a       	sub	r14, r31
 7d4:	f1 08       	sbc	r15, r1
 7d6:	c2 01       	movw	r24, r4
 7d8:	8e 0d       	add	r24, r14
 7da:	9f 1d       	adc	r25, r15
 7dc:	9e ab       	std	Y+54, r25	; 0x36
 7de:	8d ab       	std	Y+53, r24	; 0x35
 7e0:	20 e2       	ldi	r18, 0x20	; 32
 7e2:	fc 01       	movw	r30, r24
 7e4:	20 83       	st	Z, r18
 7e6:	4b a9       	ldd	r20, Y+51	; 0x33
 7e8:	5c a9       	ldd	r21, Y+52	; 0x34
 7ea:	68 2d       	mov	r22, r8
 7ec:	81 e0       	ldi	r24, 0x01	; 1
 7ee:	0e 94 7b 02 	call	0x4f6	; 0x4f6 <DisplayText>
 7f2:	ed a9       	ldd	r30, Y+53	; 0x35
 7f4:	fe a9       	ldd	r31, Y+54	; 0x36
 7f6:	10 82       	st	Z, r1
 7f8:	0e c0       	rjmp	.+28     	; 0x816 <calculator+0x14e>
 7fa:	a5 01       	movw	r20, r10
 7fc:	b7 01       	movw	r22, r14
 7fe:	8b a9       	ldd	r24, Y+51	; 0x33
 800:	9c a9       	ldd	r25, Y+52	; 0x34
 802:	0e 94 50 03 	call	0x6a0	; 0x6a0 <append>
 806:	f2 01       	movw	r30, r4
 808:	01 90       	ld	r0, Z+
 80a:	00 20       	and	r0, r0
 80c:	e9 f7       	brne	.-6      	; 0x808 <calculator+0x140>
 80e:	31 97       	sbiw	r30, 0x01	; 1
 810:	7f 01       	movw	r14, r30
 812:	e4 18       	sub	r14, r4
 814:	f5 08       	sbc	r15, r5
 816:	4b a9       	ldd	r20, Y+51	; 0x33
 818:	5c a9       	ldd	r21, Y+52	; 0x34
 81a:	68 2d       	mov	r22, r8
 81c:	81 e0       	ldi	r24, 0x01	; 1
 81e:	0e 94 7b 02 	call	0x4f6	; 0x4f6 <DisplayText>
 822:	f4 e1       	ldi	r31, 0x14	; 20
 824:	ef 16       	cp	r14, r31
 826:	f1 04       	cpc	r15, r1
 828:	31 f4       	brne	.+12     	; 0x836 <calculator+0x16e>
 82a:	2c e0       	ldi	r18, 0x0C	; 12
 82c:	82 0e       	add	r8, r18
 82e:	91 1c       	adc	r9, r1
 830:	19 82       	std	Y+1, r1	; 0x01
 832:	e1 2c       	mov	r14, r1
 834:	f1 2c       	mov	r15, r1
 836:	8f ef       	ldi	r24, 0xFF	; 255
 838:	94 e3       	ldi	r25, 0x34	; 52
 83a:	ec e0       	ldi	r30, 0x0C	; 12
 83c:	81 50       	subi	r24, 0x01	; 1
 83e:	90 40       	sbci	r25, 0x00	; 0
 840:	e0 40       	sbci	r30, 0x00	; 0
 842:	e1 f7       	brne	.-8      	; 0x83c <calculator+0x174>
 844:	00 c0       	rjmp	.+0      	; 0x846 <calculator+0x17e>
 846:	00 00       	nop
 848:	0f 5f       	subi	r16, 0xFF	; 255
 84a:	1f 4f       	sbci	r17, 0xFF	; 255
 84c:	f8 e1       	ldi	r31, 0x18	; 24
 84e:	af 0e       	add	r10, r31
 850:	b1 1c       	adc	r11, r1
 852:	24 e0       	ldi	r18, 0x04	; 4
 854:	c2 0e       	add	r12, r18
 856:	d1 1c       	adc	r13, r1
 858:	04 30       	cpi	r16, 0x04	; 4
 85a:	11 05       	cpc	r17, r1
 85c:	09 f0       	breq	.+2      	; 0x860 <__stack+0x1>
 85e:	65 cf       	rjmp	.-310    	; 0x72a <calculator+0x62>
 860:	8f e1       	ldi	r24, 0x1F	; 31
 862:	9e e4       	ldi	r25, 0x4E	; 78
 864:	01 97       	sbiw	r24, 0x01	; 1
 866:	f1 f7       	brne	.-4      	; 0x864 <__stack+0x5>
 868:	00 c0       	rjmp	.+0      	; 0x86a <__stack+0xb>
 86a:	00 00       	nop
 86c:	9f ef       	ldi	r25, 0xFF	; 255
 86e:	69 1a       	sub	r6, r25
 870:	79 0a       	sbc	r7, r25
 872:	e6 e0       	ldi	r30, 0x06	; 6
 874:	2e 0e       	add	r2, r30
 876:	31 1c       	adc	r3, r1
 878:	f8 e0       	ldi	r31, 0x08	; 8
 87a:	6f 16       	cp	r6, r31
 87c:	71 04       	cpc	r7, r1
 87e:	09 f0       	breq	.+2      	; 0x882 <__stack+0x23>
 880:	43 cf       	rjmp	.-378    	; 0x708 <calculator+0x40>
 882:	38 cf       	rjmp	.-400    	; 0x6f4 <calculator+0x2c>

00000884 <main>:
	//todo
}
int main(void)
{
	InitLCD();
 884:	0e 94 3c 01 	call	0x278	; 0x278 <InitLCD>
	LCD_Clear();
 888:	0e 94 ed 01 	call	0x3da	; 0x3da <LCD_Clear>
	initial_page();
 88c:	0e 94 a3 02 	call	0x546	; 0x546 <initial_page>
	DDRB=0xFF;
 890:	8f ef       	ldi	r24, 0xFF	; 255
 892:	87 bb       	out	0x17, r24	; 23
	DDRA=0xFF;
 894:	8a bb       	out	0x1a, r24	; 26
	
	//take input
	char input = mode_selector();
 896:	0e 94 f8 02 	call	0x5f0	; 0x5f0 <mode_selector>
	if(input=='1')
 89a:	81 33       	cpi	r24, 0x31	; 49
 89c:	11 f4       	brne	.+4      	; 0x8a2 <main+0x1e>
	{
		calculator();	
 89e:	0e 94 64 03 	call	0x6c8	; 0x6c8 <calculator>
	else if(input=='4')
	{
		simpson();
	}
	
 8a2:	80 e0       	ldi	r24, 0x00	; 0
 8a4:	90 e0       	ldi	r25, 0x00	; 0
 8a6:	08 95       	ret

000008a8 <_exit>:
 8a8:	f8 94       	cli

000008aa <__stop_program>:
 8aa:	ff cf       	rjmp	.-2      	; 0x8aa <__stop_program>
