
GccApplication1.elf:     file format elf32-avr

Sections:
Idx Name          Size      VMA       LMA       File off  Algn
  0 .text         000043b8  00000000  00000000  00000094  2**1
                  CONTENTS, ALLOC, LOAD, READONLY, CODE
  1 .data         0000024a  00800060  000043b8  0000444c  2**0
                  CONTENTS, ALLOC, LOAD, DATA
  2 .bss          00000406  008002aa  008002aa  00004696  2**0
                  ALLOC
  3 .comment      0000005c  00000000  00000000  00004696  2**0
                  CONTENTS, READONLY
  4 .note.gnu.avr.deviceinfo 0000003c  00000000  00000000  000046f4  2**2
                  CONTENTS, READONLY
  5 .debug_aranges 00000138  00000000  00000000  00004730  2**0
                  CONTENTS, READONLY, DEBUGGING
  6 .debug_info   00003a90  00000000  00000000  00004868  2**0
                  CONTENTS, READONLY, DEBUGGING
  7 .debug_abbrev 000009d7  00000000  00000000  000082f8  2**0
                  CONTENTS, READONLY, DEBUGGING
  8 .debug_line   0000193f  00000000  00000000  00008ccf  2**0
                  CONTENTS, READONLY, DEBUGGING
  9 .debug_frame  000007f0  00000000  00000000  0000a610  2**2
                  CONTENTS, READONLY, DEBUGGING
 10 .debug_str    000008f9  00000000  00000000  0000ae00  2**0
                  CONTENTS, READONLY, DEBUGGING
 11 .debug_loc    00003d29  00000000  00000000  0000b6f9  2**0
                  CONTENTS, READONLY, DEBUGGING
 12 .debug_ranges 00000368  00000000  00000000  0000f422  2**0
                  CONTENTS, READONLY, DEBUGGING

Disassembly of section .text:

00000000 <__vectors>:
       0:	0c 94 5a 02 	jmp	0x4b4	; 0x4b4 <__ctors_end>
       4:	0c 94 77 02 	jmp	0x4ee	; 0x4ee <__bad_interrupt>
       8:	0c 94 77 02 	jmp	0x4ee	; 0x4ee <__bad_interrupt>
       c:	0c 94 77 02 	jmp	0x4ee	; 0x4ee <__bad_interrupt>
      10:	0c 94 77 02 	jmp	0x4ee	; 0x4ee <__bad_interrupt>
      14:	0c 94 77 02 	jmp	0x4ee	; 0x4ee <__bad_interrupt>
      18:	0c 94 77 02 	jmp	0x4ee	; 0x4ee <__bad_interrupt>
      1c:	0c 94 77 02 	jmp	0x4ee	; 0x4ee <__bad_interrupt>
      20:	0c 94 77 02 	jmp	0x4ee	; 0x4ee <__bad_interrupt>
      24:	0c 94 77 02 	jmp	0x4ee	; 0x4ee <__bad_interrupt>
      28:	0c 94 77 02 	jmp	0x4ee	; 0x4ee <__bad_interrupt>
      2c:	0c 94 77 02 	jmp	0x4ee	; 0x4ee <__bad_interrupt>
      30:	0c 94 77 02 	jmp	0x4ee	; 0x4ee <__bad_interrupt>
      34:	0c 94 77 02 	jmp	0x4ee	; 0x4ee <__bad_interrupt>
      38:	0c 94 77 02 	jmp	0x4ee	; 0x4ee <__bad_interrupt>
      3c:	0c 94 77 02 	jmp	0x4ee	; 0x4ee <__bad_interrupt>
      40:	0c 94 77 02 	jmp	0x4ee	; 0x4ee <__bad_interrupt>
      44:	0c 94 77 02 	jmp	0x4ee	; 0x4ee <__bad_interrupt>
      48:	0c 94 77 02 	jmp	0x4ee	; 0x4ee <__bad_interrupt>
      4c:	0c 94 77 02 	jmp	0x4ee	; 0x4ee <__bad_interrupt>
      50:	0c 94 77 02 	jmp	0x4ee	; 0x4ee <__bad_interrupt>
      54:	03 6e       	ori	r16, 0xE3	; 227
      56:	db 36       	cpi	r29, 0x6B	; 107
      58:	3d 9a       	sbi	0x07, 5	; 7
      5a:	99 99       	sbic	0x13, 1	; 19
      5c:	99 3d       	cpi	r25, 0xD9	; 217
      5e:	ab aa       	std	Y+51, r10	; 0x33
      60:	aa 2a       	or	r10, r26
      62:	3e 00       	.word	0x003e	; ????
      64:	00 00       	nop
      66:	80 3f       	cpi	r24, 0xF0	; 240
      68:	08 4a       	sbci	r16, 0xA8	; 168
      6a:	d7 3b       	cpi	r29, 0xB7	; 183
      6c:	3b ce       	rjmp	.-906    	; 0xfffffce4 <__eeprom_end+0xff7efce4>
      6e:	01 6e       	ori	r16, 0xE1	; 225
      70:	84 bc       	out	0x24, r8	; 36
      72:	bf fd       	.word	0xfdbf	; ????
      74:	c1 2f       	mov	r28, r17
      76:	3d 6c       	ori	r19, 0xCD	; 205
      78:	74 31       	cpi	r23, 0x14	; 20
      7a:	9a bd       	out	0x2a, r25	; 42
      7c:	56 83       	std	Z+6, r21	; 0x06
      7e:	3d da       	rcall	.-2950   	; 0xfffff4fa <__eeprom_end+0xff7ef4fa>
      80:	3d 00       	.word	0x003d	; ????
      82:	c7 7f       	andi	r28, 0xF7	; 247
      84:	11 be       	out	0x31, r1	; 49
      86:	d9 e4       	ldi	r29, 0x49	; 73
      88:	bb 4c       	sbci	r27, 0xCB	; 203
      8a:	3e 91       	ld	r19, -X
      8c:	6b aa       	std	Y+51, r6	; 0x33
      8e:	aa be       	out	0x3a, r10	; 58
      90:	00 00       	nop
      92:	00 80       	ld	r0, Z
      94:	3f 07       	cpc	r19, r31
      96:	63 42       	sbci	r22, 0x23	; 35
      98:	36 b7       	in	r19, 0x36	; 54
      9a:	9b d8       	rcall	.-3786   	; 0xfffff1d2 <__eeprom_end+0xff7ef1d2>
      9c:	a7 1a       	sub	r10, r23
      9e:	39 68       	ori	r19, 0x89	; 137
      a0:	56 18       	sub	r5, r6
      a2:	ae ba       	out	0x1e, r10	; 30
      a4:	ab 55       	subi	r26, 0x5B	; 91
      a6:	8c 1d       	adc	r24, r12
      a8:	3c b7       	in	r19, 0x3c	; 60
      aa:	cc 57       	subi	r28, 0x7C	; 124
      ac:	63 bd       	out	0x23, r22	; 35
      ae:	6d ed       	ldi	r22, 0xDD	; 221
      b0:	fd 75       	andi	r31, 0x5D	; 93
      b2:	3e f6       	brtc	.-114    	; 0x42 <__SREG__+0x3>
      b4:	17 72       	andi	r17, 0x27	; 39
      b6:	31 bf       	out	0x31, r19	; 49
      b8:	00 00       	nop
      ba:	00 80       	ld	r0, Z
      bc:	3f 07       	cpc	r19, r31
      be:	2c 7a       	andi	r18, 0xAC	; 172
      c0:	a5 ba       	out	0x15, r10	; 21
      c2:	6c c5       	rjmp	.+2776   	; 0xb9c <_ZN6parser9eval_exp6ERd+0x17a>
      c4:	90 da       	rcall	.-2784   	; 0xfffff5e6 <__eeprom_end+0xff7ef5e6>
      c6:	3b 93       	.word	0x933b	; ????
      c8:	65 fc       	sbrc	r6, 5
      ca:	8b bc       	out	0x2b, r8	; 43
      cc:	53 f8       	bld	r5, 3
      ce:	10 fd       	sbrc	r17, 0
      d0:	3c 56       	subi	r19, 0x6C	; 108
      d2:	92 83       	std	Z+2, r25	; 0x02
      d4:	4d bd       	out	0x2d, r20	; 45
      d6:	87 9d       	mul	r24, r7
      d8:	3a b6       	in	r3, 0x3a	; 58
      da:	3d cb       	rjmp	.-2438   	; 0xfffff756 <__eeprom_end+0xff7ef756>
      dc:	c9 bf       	out	0x39, r28	; 57
      de:	5b be       	out	0x3b, r5	; 59
      e0:	73 da       	rcall	.-2842   	; 0xfffff5c8 <__eeprom_end+0xff7ef5c8>
      e2:	0f c9       	rjmp	.-3554   	; 0xfffff302 <__eeprom_end+0xff7ef302>
      e4:	3f 05       	cpc	r19, r15
      e6:	a8 4c       	sbci	r26, 0xC8	; 200
      e8:	cd b2       	in	r12, 0x1d	; 29
      ea:	d4 4e       	sbci	r29, 0xE4	; 228
      ec:	b9 38       	cpi	r27, 0x89	; 137
      ee:	36 a9       	ldd	r19, Z+54	; 0x36
      f0:	02 0c       	add	r0, r2
      f2:	50 b9       	out	0x00, r21	; 0
      f4:	91 86       	std	Z+9, r9	; 0x09
      f6:	88 08       	sbc	r8, r8
      f8:	3c a6       	std	Y+44, r3	; 0x2c
      fa:	aa aa       	std	Y+50, r10	; 0x32
      fc:	2a be       	out	0x3a, r2	; 58
      fe:	00 00       	nop
     100:	00 80       	ld	r0, Z
     102:	3f 08       	sbc	r3, r15
     104:	00 00       	nop
     106:	00 be       	out	0x30, r0	; 48
     108:	92 24       	eor	r9, r2
     10a:	49 12       	cpse	r4, r25
     10c:	3e ab       	std	Y+54, r19	; 0x36
     10e:	aa aa       	std	Y+50, r10	; 0x32
     110:	2a be       	out	0x3a, r2	; 58
     112:	cd cc       	rjmp	.-1638   	; 0xfffffaae <__eeprom_end+0xff7efaae>
     114:	cc 4c       	sbci	r28, 0xCC	; 204
     116:	3e 00       	.word	0x003e	; ????
     118:	00 00       	nop
     11a:	80 be       	out	0x30, r8	; 48
     11c:	ab aa       	std	Y+51, r10	; 0x33
     11e:	aa aa       	std	Y+50, r10	; 0x32
     120:	3e 00       	.word	0x003e	; ????
     122:	00 00       	nop
     124:	00 bf       	out	0x30, r16	; 48
     126:	00 00       	nop
     128:	00 80       	ld	r0, Z
     12a:	3f 00       	.word	0x003f	; ????
     12c:	00 00       	nop
     12e:	00 00       	nop
     130:	08 41       	sbci	r16, 0x18	; 24
     132:	78 d3       	rcall	.+1776   	; 0x824 <_ZN6parser9get_tokenEv+0x40>
     134:	bb 43       	sbci	r27, 0x3B	; 59
     136:	87 d1       	rcall	.+782    	; 0x446 <__LOCK_REGION_LENGTH__+0x46>
     138:	13 3d       	cpi	r17, 0xD3	; 211
     13a:	19 0e       	add	r1, r25
     13c:	3c c3       	rjmp	.+1656   	; 0x7b6 <_Z11DisplayTexthhPc+0x48>
     13e:	bd 42       	sbci	r27, 0x2D	; 45
     140:	82 ad       	ldd	r24, Z+58	; 0x3a
     142:	2b 3e       	cpi	r18, 0xEB	; 235
     144:	68 ec       	ldi	r22, 0xC8	; 200
     146:	82 76       	andi	r24, 0x62	; 98
     148:	be d9       	rcall	.-3204   	; 0xfffff4c6 <__eeprom_end+0xff7ef4c6>
     14a:	8f e1       	ldi	r24, 0x1F	; 31
     14c:	a9 3e       	cpi	r26, 0xE9	; 233
     14e:	4c 80       	ldd	r4, Y+4	; 0x04
     150:	ef ff       	.word	0xffef	; ????
     152:	be 01       	movw	r22, r28
     154:	c4 ff       	sbrs	r28, 4
     156:	7f 3f       	cpi	r23, 0xFF	; 255
     158:	00 00       	nop
     15a:	00 00       	nop
     15c:	00 02       	muls	r16, r16
     15e:	89 88       	ldd	r8, Y+17	; 0x11
     160:	08 3c       	cpi	r16, 0xC8	; 200
     162:	ab aa       	std	Y+51, r10	; 0x33
     164:	aa 2a       	or	r10, r26
     166:	3e 00       	.word	0x003e	; ????
     168:	00 00       	nop
     16a:	80 3f       	cpi	r24, 0xF0	; 240
     16c:	02 89       	ldd	r16, Z+18	; 0x12
     16e:	88 08       	sbc	r8, r8
     170:	3e ab       	std	Y+54, r19	; 0x36
     172:	aa aa       	std	Y+50, r10	; 0x32
     174:	aa be       	out	0x3a, r10	; 58
     176:	00 00       	nop
     178:	00 80       	ld	r0, Z
     17a:	3f 06       	cpc	r3, r31
     17c:	64 ec       	ldi	r22, 0xC4	; 196
     17e:	1b 3c       	cpi	r17, 0xCB	; 203
     180:	04 bc       	out	0x24, r0	; 36
     182:	16 3e       	cpi	r17, 0xE6	; 230
     184:	3b e5       	ldi	r19, 0x5B	; 91
     186:	b9 3c       	cpi	r27, 0xC9	; 201
     188:	c9 3c       	cpi	r28, 0xC9	; 201
     18a:	37 c2       	rjmp	.+1134   	; 0x5fa <_Z8PutPixelhhc+0x8c>
     18c:	9e 5a       	subi	r25, 0xAE	; 174
     18e:	3d 66       	ori	r19, 0x6D	; 109
     190:	04 98       	cbi	0x00, 4	; 0
     192:	08 3e       	cpi	r16, 0xE8	; 232
     194:	ea 69       	ori	r30, 0x9A	; 154
     196:	aa aa       	std	Y+50, r10	; 0x32
     198:	3e 00       	.word	0x003e	; ????
     19a:	00 00       	nop
     19c:	80 3f       	cpi	r24, 0xF0	; 240

0000019e <__trampolines_end>:
     19e:	4e 41       	sbci	r20, 0x1E	; 30
     1a0:	4e 49       	Address 0x000001a0 is out of bounds.
.word	0xffff	; ????

000001a1 <pstr_inity>:
     1a1:	49 4e 49 54 59                                      INITY

000001a6 <pstr_inf>:
     1a6:	49 4e 46                                            INF

000001a9 <pwr_m10>:
     1a9:	cd cc cc 3d 0a d7 23 3c 17 b7 d1 38 77 cc 2b 32     ...=..#<...8w.+2
     1b9:	95 95 e6 24 1f b1 4f 0a                             ...$..O.

000001c1 <pwr_p10>:
     1c1:	00 00 20 41 00 00 c8 42 00 40 1c 46 20 bc be 4c     .. A...B.@.F ..L
     1d1:	ca 1b 0e 5a ae c5 9d 74 00 40 7a 10 f3 5a 00 a0     ...Z...t.@z..Z..
     1e1:	72 4e 18 09 00 10 a5 d4 e8 00 00 e8 76 48 17 00     rN..........vH..
     1f1:	00 e4 0b 54 02 00 00 ca 9a 3b 00 00 00 e1 f5 05     ...T.....;......
     201:	00 00 80 96 98 00 00 00 40 42 0f 00 00 00 a0 86     ........@B......
     211:	01 00 00 00 10 27 00 00 00 00 e8 03 00 00 00 00     .....'..........
     221:	64 00 00 00 00 00 0a 00 00 00 00 00 01 00 00 00     d...............
     231:	00 00 2c 76 d8 88 dc 67 4f 08 23 df c1 df ae 59     ..,v...gO.#....Y
     241:	e1 b1 b7 96 e5 e3 e4 53 c6 3a e6 51 99 76 96 e8     .......S.:.Q.v..
     251:	e6 c2 84 26 eb 89 8c 9b 62 ed 40 7c 6f fc ef bc     ...&....b.@|o...
     261:	9c 9f 40 f2 ba a5 6f a5 f4 90 05 5a 2a f7 5c 93     ..@...o....Z*.\.
     271:	6b 6c f9 67 6d c1 1b fc e0 e4 0d 47 fe f5 20 e6     kl.gm......G.. .
     281:	b5 00 d0 ed 90 2e 03 00 94 35 77 05 00 80 84 1e     .........5w.....
     291:	08 00 00 20 4e 0a 00 00 00 c8 0c 33 33 33 33 0f     ... N......3333.
     2a1:	98 6e 12 83 11 41 ef 8d 21 14 89 3b e6 55 16 cf     .n...A..!..;.U..
     2b1:	fe e6 db 18 d1 84 4b 38 1b f7 7c 1d 90 1d a4 bb     ......K8..|.....
     2c1:	e4 24 20 32 84 72 5e 22 81 00 c9 f1 24 ec a1 e5     .$ 2.r^"....$...
     2d1:	3d 27                                               ='

000002d3 <_ZL10FontLookup>:
     2d3:	00 00 00 00 00 00 00 5f 00 00 00 07 00 07 00 14     ......._........
     2e3:	7f 14 7f 14 24 2a 7f 2a 12 23 13 08 64 62 36 49     ....$*.*.#..db6I
     2f3:	55 22 50 00 05 03 00 00 00 1c 22 41 00 00 41 22     U"P......."A..A"
     303:	1c 00 08 2a 1c 2a 08 08 08 3e 08 08 00 50 30 00     ...*.*...>...P0.
     313:	00 08 08 08 08 08 00 30 30 00 00 20 10 08 04 02     .......00.. ....
     323:	3e 51 49 45 3e 00 42 7f 40 00 42 61 51 49 46 21     >QIE>.B.@.BaQIF!
     333:	41 45 4b 31 18 14 12 7f 10 27 45 45 45 39 3c 4a     AEK1.....'EEE9<J
     343:	49 49 30 01 71 09 05 03 36 49 49 49 36 06 49 49     II0.q...6III6.II
     353:	29 1e 00 36 36 00 00 00 56 36 00 00 00 08 14 22     )..66...V6....."
     363:	41 14 14 14 14 14 41 22 14 08 00 02 01 51 09 06     A.....A".....Q..
     373:	32 49 79 41 3e 7e 11 11 11 7e 7f 49 49 49 36 3e     2IyA>~...~.III6>
     383:	41 41 41 22 7f 41 41 22 1c 7f 49 49 49 41 7f 09     AAA".AA"..IIIA..
     393:	09 01 01 3e 41 41 51 32 7f 08 08 08 7f 00 41 7f     ...>AAQ2......A.
     3a3:	41 00 20 40 41 3f 01 7f 08 14 22 41 7f 40 40 40     A. @A?...."A.@@@
     3b3:	40 7f 02 04 02 7f 7f 04 08 10 7f 3e 41 41 41 3e     @..........>AAA>
     3c3:	7f 09 09 09 06 3e 41 51 21 5e 7f 09 19 29 46 46     .....>AQ!^...)FF
     3d3:	49 49 49 31 01 01 7f 01 01 3f 40 40 40 3f 1f 20     III1.....?@@@?. 
     3e3:	40 20 1f 7f 20 18 20 7f 63 14 08 14 63 03 04 78     @ .. . .c...c..x
     3f3:	04 03 61 51 49 45 43 00 00 7f 41 41 02 04 08 10     ..aQIEC...AA....
     403:	20 41 41 7f 00 00 04 02 01 02 04 40 40 40 40 40      AA........@@@@@
     413:	00 01 02 04 00 20 54 54 54 78 7f 48 44 44 38 38     ..... TTTx.HDD88
     423:	44 44 44 20 38 44 44 48 7f 38 54 54 54 18 08 7e     DDD 8DDH.8TTT..~
     433:	09 01 02 08 14 54 54 3c 7f 08 04 04 78 00 44 7d     .....TT<....x.D}
     443:	40 00 20 40 44 3d 00 00 7f 10 28 44 00 41 7f 40     @. @D=....(D.A.@
     453:	00 7c 04 18 04 78 7c 08 04 04 78 38 44 44 44 38     .|...x|...x8DDD8
     463:	7c 14 14 14 08 08 14 14 18 7c 7c 08 04 04 08 48     |........||....H
     473:	54 54 54 20 04 3f 44 40 20 3c 40 40 20 7c 1c 20     TTT .?D@ <@@ |. 
     483:	40 20 1c 3c 40 30 40 3c 44 28 10 28 44 0c 50 50     @ .<@0@<D(.(D.PP
     493:	50 3c 44 64 54 4c 44 00 08 36 41 00 00 00 7f 00     P<DdTLD..6A.....
     4a3:	00 00 41 36 08 00 08 08 2a 1c 08 08 1c 2a 08 08     ..A6....*....*..
	...

000004b4 <__ctors_end>:
     4b4:	11 24       	eor	r1, r1
     4b6:	1f be       	out	0x3f, r1	; 63
     4b8:	cf e5       	ldi	r28, 0x5F	; 95
     4ba:	d8 e0       	ldi	r29, 0x08	; 8
     4bc:	de bf       	out	0x3e, r29	; 62
     4be:	cd bf       	out	0x3d, r28	; 61

000004c0 <__do_copy_data>:
     4c0:	12 e0       	ldi	r17, 0x02	; 2
     4c2:	a0 e6       	ldi	r26, 0x60	; 96
     4c4:	b0 e0       	ldi	r27, 0x00	; 0
     4c6:	e8 eb       	ldi	r30, 0xB8	; 184
     4c8:	f3 e4       	ldi	r31, 0x43	; 67
     4ca:	02 c0       	rjmp	.+4      	; 0x4d0 <__do_copy_data+0x10>
     4cc:	05 90       	lpm	r0, Z+
     4ce:	0d 92       	st	X+, r0
     4d0:	aa 3a       	cpi	r26, 0xAA	; 170
     4d2:	b1 07       	cpc	r27, r17
     4d4:	d9 f7       	brne	.-10     	; 0x4cc <__do_copy_data+0xc>

000004d6 <__do_clear_bss>:
     4d6:	26 e0       	ldi	r18, 0x06	; 6
     4d8:	aa ea       	ldi	r26, 0xAA	; 170
     4da:	b2 e0       	ldi	r27, 0x02	; 2
     4dc:	01 c0       	rjmp	.+2      	; 0x4e0 <.do_clear_bss_start>

000004de <.do_clear_bss_loop>:
     4de:	1d 92       	st	X+, r1

000004e0 <.do_clear_bss_start>:
     4e0:	a0 3b       	cpi	r26, 0xB0	; 176
     4e2:	b2 07       	cpc	r27, r18
     4e4:	e1 f7       	brne	.-8      	; 0x4de <.do_clear_bss_loop>
     4e6:	0e 94 51 16 	call	0x2ca2	; 0x2ca2 <main>
     4ea:	0c 94 da 21 	jmp	0x43b4	; 0x43b4 <_exit>

000004ee <__bad_interrupt>:
     4ee:	0c 94 00 00 	jmp	0	; 0x0 <__vectors>

000004f2 <_Z6Epulsev>:
	free(ans);
}

//done with gauss
void newton_raphson()
{
     4f2:	ac 9a       	sbi	0x15, 4	; 21
     4f4:	ac 98       	cbi	0x15, 4	; 21
     4f6:	08 95       	ret

000004f8 <_Z7InitLCDv>:
     4f8:	8f ef       	ldi	r24, 0xFF	; 255
     4fa:	81 bb       	out	0x11, r24	; 17
     4fc:	a0 9a       	sbi	0x14, 0	; 20
     4fe:	a4 9a       	sbi	0x14, 4	; 20
     500:	a3 9a       	sbi	0x14, 3	; 20
     502:	a2 9a       	sbi	0x14, 2	; 20
     504:	a1 9a       	sbi	0x14, 1	; 20
     506:	a9 98       	cbi	0x15, 1	; 21
     508:	2f e7       	ldi	r18, 0x7F	; 127
     50a:	88 e3       	ldi	r24, 0x38	; 56
     50c:	91 e0       	ldi	r25, 0x01	; 1
     50e:	21 50       	subi	r18, 0x01	; 1
     510:	80 40       	sbci	r24, 0x00	; 0
     512:	90 40       	sbci	r25, 0x00	; 0
     514:	e1 f7       	brne	.-8      	; 0x50e <_Z7InitLCDv+0x16>
     516:	00 c0       	rjmp	.+0      	; 0x518 <_Z7InitLCDv+0x20>
     518:	00 00       	nop
     51a:	a9 9a       	sbi	0x15, 1	; 21
     51c:	2f e7       	ldi	r18, 0x7F	; 127
     51e:	88 e3       	ldi	r24, 0x38	; 56
     520:	91 e0       	ldi	r25, 0x01	; 1
     522:	21 50       	subi	r18, 0x01	; 1
     524:	80 40       	sbci	r24, 0x00	; 0
     526:	90 40       	sbci	r25, 0x00	; 0
     528:	e1 f7       	brne	.-8      	; 0x522 <_Z7InitLCDv+0x2a>
     52a:	00 c0       	rjmp	.+0      	; 0x52c <_Z7InitLCDv+0x34>
     52c:	00 00       	nop
     52e:	a8 98       	cbi	0x15, 0	; 21
     530:	ab 9a       	sbi	0x15, 3	; 21
     532:	aa 9a       	sbi	0x15, 2	; 21
     534:	8f e3       	ldi	r24, 0x3F	; 63
     536:	82 bb       	out	0x12, r24	; 18
     538:	0e 94 79 02 	call	0x4f2	; 0x4f2 <_Z6Epulsev>
     53c:	80 ec       	ldi	r24, 0xC0	; 192
     53e:	82 bb       	out	0x12, r24	; 18
     540:	0e 94 79 02 	call	0x4f2	; 0x4f2 <_Z6Epulsev>
     544:	2f e7       	ldi	r18, 0x7F	; 127
     546:	88 e3       	ldi	r24, 0x38	; 56
     548:	91 e0       	ldi	r25, 0x01	; 1
     54a:	21 50       	subi	r18, 0x01	; 1
     54c:	80 40       	sbci	r24, 0x00	; 0
     54e:	90 40       	sbci	r25, 0x00	; 0
     550:	e1 f7       	brne	.-8      	; 0x54a <_Z7InitLCDv+0x52>
     552:	00 c0       	rjmp	.+0      	; 0x554 <_Z7InitLCDv+0x5c>
     554:	00 00       	nop
     556:	2f e7       	ldi	r18, 0x7F	; 127
     558:	88 e3       	ldi	r24, 0x38	; 56
     55a:	91 e0       	ldi	r25, 0x01	; 1
     55c:	21 50       	subi	r18, 0x01	; 1
     55e:	80 40       	sbci	r24, 0x00	; 0
     560:	90 40       	sbci	r25, 0x00	; 0
     562:	e1 f7       	brne	.-8      	; 0x55c <_Z7InitLCDv+0x64>
     564:	00 c0       	rjmp	.+0      	; 0x566 <_Z7InitLCDv+0x6e>
     566:	00 00       	nop
     568:	ab 98       	cbi	0x15, 3	; 21
     56a:	aa 98       	cbi	0x15, 2	; 21
     56c:	08 95       	ret

0000056e <_Z8PutPixelhhc>:
     56e:	0f 93       	push	r16
     570:	1f 93       	push	r17
     572:	cf 93       	push	r28
     574:	df 93       	push	r29
     576:	c8 2f       	mov	r28, r24
     578:	04 2f       	mov	r16, r20
     57a:	68 30       	cpi	r22, 0x08	; 8
     57c:	68 f0       	brcs	.+26     	; 0x598 <_Z8PutPixelhhc+0x2a>
     57e:	86 2f       	mov	r24, r22
     580:	88 50       	subi	r24, 0x08	; 8
     582:	88 30       	cpi	r24, 0x08	; 8
     584:	e8 f7       	brcc	.-6      	; 0x580 <_Z8PutPixelhhc+0x12>
     586:	16 2f       	mov	r17, r22
     588:	17 70       	andi	r17, 0x07	; 7
     58a:	d8 ef       	ldi	r29, 0xF8	; 248
     58c:	d6 0f       	add	r29, r22
     58e:	d6 95       	lsr	r29
     590:	d6 95       	lsr	r29
     592:	d6 95       	lsr	r29
     594:	df 5f       	subi	r29, 0xFF	; 255
     596:	02 c0       	rjmp	.+4      	; 0x59c <_Z8PutPixelhhc+0x2e>
     598:	16 2f       	mov	r17, r22
     59a:	d0 e0       	ldi	r29, 0x00	; 0
     59c:	c0 34       	cpi	r28, 0x40	; 64
     59e:	80 f4       	brcc	.+32     	; 0x5c0 <_Z8PutPixelhhc+0x52>
     5a0:	a8 98       	cbi	0x15, 0	; 21
     5a2:	ab 9a       	sbi	0x15, 3	; 21
     5a4:	aa 98       	cbi	0x15, 2	; 21
     5a6:	d7 70       	andi	r29, 0x07	; 7
     5a8:	8d 2f       	mov	r24, r29
     5aa:	88 6b       	ori	r24, 0xB8	; 184
     5ac:	82 bb       	out	0x12, r24	; 18
     5ae:	0e 94 79 02 	call	0x4f2	; 0x4f2 <_Z6Epulsev>
     5b2:	cf 73       	andi	r28, 0x3F	; 63
     5b4:	8c 2f       	mov	r24, r28
     5b6:	80 64       	ori	r24, 0x40	; 64
     5b8:	82 bb       	out	0x12, r24	; 18
     5ba:	0e 94 79 02 	call	0x4f2	; 0x4f2 <_Z6Epulsev>
     5be:	11 c0       	rjmp	.+34     	; 0x5e2 <_Z8PutPixelhhc+0x74>
     5c0:	c0 54       	subi	r28, 0x40	; 64
     5c2:	a8 98       	cbi	0x15, 0	; 21
     5c4:	ab 98       	cbi	0x15, 3	; 21
     5c6:	aa 9a       	sbi	0x15, 2	; 21
     5c8:	d7 70       	andi	r29, 0x07	; 7
     5ca:	8d 2f       	mov	r24, r29
     5cc:	88 6b       	ori	r24, 0xB8	; 184
     5ce:	82 bb       	out	0x12, r24	; 18
     5d0:	0e 94 79 02 	call	0x4f2	; 0x4f2 <_Z6Epulsev>
     5d4:	cf 73       	andi	r28, 0x3F	; 63
     5d6:	8c 2f       	mov	r24, r28
     5d8:	80 64       	ori	r24, 0x40	; 64
     5da:	82 bb       	out	0x12, r24	; 18
     5dc:	0e 94 79 02 	call	0x4f2	; 0x4f2 <_Z6Epulsev>
     5e0:	c0 5c       	subi	r28, 0xC0	; 192
     5e2:	a8 9a       	sbi	0x15, 0	; 21
     5e4:	01 30       	cpi	r16, 0x01	; 1
     5e6:	d1 f4       	brne	.+52     	; 0x61c <_Z8PutPixelhhc+0xae>
     5e8:	ec 2f       	mov	r30, r28
     5ea:	f0 e0       	ldi	r31, 0x00	; 0
     5ec:	ee 0f       	add	r30, r30
     5ee:	ff 1f       	adc	r31, r31
     5f0:	ee 0f       	add	r30, r30
     5f2:	ff 1f       	adc	r31, r31
     5f4:	ee 0f       	add	r30, r30
     5f6:	ff 1f       	adc	r31, r31
     5f8:	e6 55       	subi	r30, 0x56	; 86
     5fa:	fd 4f       	sbci	r31, 0xFD	; 253
     5fc:	ed 0f       	add	r30, r29
     5fe:	f1 1d       	adc	r31, r1
     600:	81 e0       	ldi	r24, 0x01	; 1
     602:	90 e0       	ldi	r25, 0x00	; 0
     604:	02 c0       	rjmp	.+4      	; 0x60a <_Z8PutPixelhhc+0x9c>
     606:	88 0f       	add	r24, r24
     608:	99 1f       	adc	r25, r25
     60a:	1a 95       	dec	r17
     60c:	e2 f7       	brpl	.-8      	; 0x606 <_Z8PutPixelhhc+0x98>
     60e:	90 81       	ld	r25, Z
     610:	89 2b       	or	r24, r25
     612:	80 83       	st	Z, r24
     614:	82 bb       	out	0x12, r24	; 18
     616:	0e 94 79 02 	call	0x4f2	; 0x4f2 <_Z6Epulsev>
     61a:	1a c0       	rjmp	.+52     	; 0x650 <_Z8PutPixelhhc+0xe2>
     61c:	ec 2f       	mov	r30, r28
     61e:	f0 e0       	ldi	r31, 0x00	; 0
     620:	81 e0       	ldi	r24, 0x01	; 1
     622:	90 e0       	ldi	r25, 0x00	; 0
     624:	02 c0       	rjmp	.+4      	; 0x62a <_Z8PutPixelhhc+0xbc>
     626:	88 0f       	add	r24, r24
     628:	99 1f       	adc	r25, r25
     62a:	1a 95       	dec	r17
     62c:	e2 f7       	brpl	.-8      	; 0x626 <_Z8PutPixelhhc+0xb8>
     62e:	80 95       	com	r24
     630:	ee 0f       	add	r30, r30
     632:	ff 1f       	adc	r31, r31
     634:	ee 0f       	add	r30, r30
     636:	ff 1f       	adc	r31, r31
     638:	ee 0f       	add	r30, r30
     63a:	ff 1f       	adc	r31, r31
     63c:	e6 55       	subi	r30, 0x56	; 86
     63e:	fd 4f       	sbci	r31, 0xFD	; 253
     640:	ed 0f       	add	r30, r29
     642:	f1 1d       	adc	r31, r1
     644:	90 81       	ld	r25, Z
     646:	89 23       	and	r24, r25
     648:	80 83       	st	Z, r24
     64a:	82 bb       	out	0x12, r24	; 18
     64c:	0e 94 79 02 	call	0x4f2	; 0x4f2 <_Z6Epulsev>
     650:	df 91       	pop	r29
     652:	cf 91       	pop	r28
     654:	1f 91       	pop	r17
     656:	0f 91       	pop	r16
     658:	08 95       	ret

0000065a <_Z9LCD_Clearv>:
     65a:	ff 92       	push	r15
     65c:	0f 93       	push	r16
     65e:	1f 93       	push	r17
     660:	cf 93       	push	r28
     662:	df 93       	push	r29
     664:	00 e0       	ldi	r16, 0x00	; 0
     666:	10 e0       	ldi	r17, 0x00	; 0
     668:	f1 2c       	mov	r15, r1
     66a:	d0 2f       	mov	r29, r16
     66c:	cf 2d       	mov	r28, r15
     66e:	ec 2f       	mov	r30, r28
     670:	f0 e0       	ldi	r31, 0x00	; 0
     672:	ee 0f       	add	r30, r30
     674:	ff 1f       	adc	r31, r31
     676:	ee 0f       	add	r30, r30
     678:	ff 1f       	adc	r31, r31
     67a:	ee 0f       	add	r30, r30
     67c:	ff 1f       	adc	r31, r31
     67e:	e6 55       	subi	r30, 0x56	; 86
     680:	fd 4f       	sbci	r31, 0xFD	; 253
     682:	e0 0f       	add	r30, r16
     684:	f1 1f       	adc	r31, r17
     686:	10 82       	st	Z, r1
     688:	c0 34       	cpi	r28, 0x40	; 64
     68a:	80 f4       	brcc	.+32     	; 0x6ac <_Z9LCD_Clearv+0x52>
     68c:	a8 98       	cbi	0x15, 0	; 21
     68e:	ab 9a       	sbi	0x15, 3	; 21
     690:	aa 98       	cbi	0x15, 2	; 21
     692:	d7 70       	andi	r29, 0x07	; 7
     694:	8d 2f       	mov	r24, r29
     696:	88 6b       	ori	r24, 0xB8	; 184
     698:	82 bb       	out	0x12, r24	; 18
     69a:	0e 94 79 02 	call	0x4f2	; 0x4f2 <_Z6Epulsev>
     69e:	cf 73       	andi	r28, 0x3F	; 63
     6a0:	8c 2f       	mov	r24, r28
     6a2:	80 64       	ori	r24, 0x40	; 64
     6a4:	82 bb       	out	0x12, r24	; 18
     6a6:	0e 94 79 02 	call	0x4f2	; 0x4f2 <_Z6Epulsev>
     6aa:	11 c0       	rjmp	.+34     	; 0x6ce <_Z9LCD_Clearv+0x74>
     6ac:	c0 54       	subi	r28, 0x40	; 64
     6ae:	a8 98       	cbi	0x15, 0	; 21
     6b0:	ab 98       	cbi	0x15, 3	; 21
     6b2:	aa 9a       	sbi	0x15, 2	; 21
     6b4:	d7 70       	andi	r29, 0x07	; 7
     6b6:	8d 2f       	mov	r24, r29
     6b8:	88 6b       	ori	r24, 0xB8	; 184
     6ba:	82 bb       	out	0x12, r24	; 18
     6bc:	0e 94 79 02 	call	0x4f2	; 0x4f2 <_Z6Epulsev>
     6c0:	cf 73       	andi	r28, 0x3F	; 63
     6c2:	8c 2f       	mov	r24, r28
     6c4:	80 64       	ori	r24, 0x40	; 64
     6c6:	82 bb       	out	0x12, r24	; 18
     6c8:	0e 94 79 02 	call	0x4f2	; 0x4f2 <_Z6Epulsev>
     6cc:	c0 5c       	subi	r28, 0xC0	; 192
     6ce:	a8 9a       	sbi	0x15, 0	; 21
     6d0:	12 ba       	out	0x12, r1	; 18
     6d2:	0e 94 79 02 	call	0x4f2	; 0x4f2 <_Z6Epulsev>
     6d6:	cf 5f       	subi	r28, 0xFF	; 255
     6d8:	52 f6       	brpl	.-108    	; 0x66e <_Z9LCD_Clearv+0x14>
     6da:	0f 5f       	subi	r16, 0xFF	; 255
     6dc:	1f 4f       	sbci	r17, 0xFF	; 255
     6de:	08 30       	cpi	r16, 0x08	; 8
     6e0:	11 05       	cpc	r17, r1
     6e2:	19 f6       	brne	.-122    	; 0x66a <_Z9LCD_Clearv+0x10>
     6e4:	df 91       	pop	r29
     6e6:	cf 91       	pop	r28
     6e8:	1f 91       	pop	r17
     6ea:	0f 91       	pop	r16
     6ec:	ff 90       	pop	r15
     6ee:	08 95       	ret

000006f0 <_Z11DisplayCharhhc>:
     6f0:	cf 92       	push	r12
     6f2:	df 92       	push	r13
     6f4:	ef 92       	push	r14
     6f6:	ff 92       	push	r15
     6f8:	0f 93       	push	r16
     6fa:	1f 93       	push	r17
     6fc:	cf 93       	push	r28
     6fe:	df 93       	push	r29
     700:	d6 2e       	mov	r13, r22
     702:	40 52       	subi	r20, 0x20	; 32
     704:	24 2f       	mov	r18, r20
     706:	30 e0       	ldi	r19, 0x00	; 0
     708:	89 01       	movw	r16, r18
     70a:	00 0f       	add	r16, r16
     70c:	11 1f       	adc	r17, r17
     70e:	00 0f       	add	r16, r16
     710:	11 1f       	adc	r17, r17
     712:	02 0f       	add	r16, r18
     714:	13 1f       	adc	r17, r19
     716:	0d 52       	subi	r16, 0x2D	; 45
     718:	1d 4f       	sbci	r17, 0xFD	; 253
     71a:	0f 2e       	mov	r0, r31
     71c:	f5 e0       	ldi	r31, 0x05	; 5
     71e:	cf 2e       	mov	r12, r31
     720:	f0 2d       	mov	r31, r0
     722:	c8 0e       	add	r12, r24
     724:	e8 2e       	mov	r14, r24
     726:	fd 2c       	mov	r15, r13
     728:	c0 e0       	ldi	r28, 0x00	; 0
     72a:	d0 e0       	ldi	r29, 0x00	; 0
     72c:	f8 01       	movw	r30, r16
     72e:	44 91       	lpm	r20, Z
     730:	50 e0       	ldi	r21, 0x00	; 0
     732:	0c 2e       	mov	r0, r28
     734:	02 c0       	rjmp	.+4      	; 0x73a <_Z11DisplayCharhhc+0x4a>
     736:	55 95       	asr	r21
     738:	47 95       	ror	r20
     73a:	0a 94       	dec	r0
     73c:	e2 f7       	brpl	.-8      	; 0x736 <_Z11DisplayCharhhc+0x46>
     73e:	41 70       	andi	r20, 0x01	; 1
     740:	6f 2d       	mov	r22, r15
     742:	8e 2d       	mov	r24, r14
     744:	0e 94 b7 02 	call	0x56e	; 0x56e <_Z8PutPixelhhc>
     748:	21 96       	adiw	r28, 0x01	; 1
     74a:	f3 94       	inc	r15
     74c:	c8 30       	cpi	r28, 0x08	; 8
     74e:	d1 05       	cpc	r29, r1
     750:	69 f7       	brne	.-38     	; 0x72c <_Z11DisplayCharhhc+0x3c>
     752:	0f 5f       	subi	r16, 0xFF	; 255
     754:	1f 4f       	sbci	r17, 0xFF	; 255
     756:	e3 94       	inc	r14
     758:	ce 10       	cpse	r12, r14
     75a:	e5 cf       	rjmp	.-54     	; 0x726 <_Z11DisplayCharhhc+0x36>
     75c:	df 91       	pop	r29
     75e:	cf 91       	pop	r28
     760:	1f 91       	pop	r17
     762:	0f 91       	pop	r16
     764:	ff 90       	pop	r15
     766:	ef 90       	pop	r14
     768:	df 90       	pop	r13
     76a:	cf 90       	pop	r12
     76c:	08 95       	ret

0000076e <_Z11DisplayTexthhPc>:
     76e:	ef 92       	push	r14
     770:	ff 92       	push	r15
     772:	0f 93       	push	r16
     774:	1f 93       	push	r17
     776:	cf 93       	push	r28
     778:	df 93       	push	r29
     77a:	fa 01       	movw	r30, r20
     77c:	01 90       	ld	r0, Z+
     77e:	00 20       	and	r0, r0
     780:	e9 f7       	brne	.-6      	; 0x77c <_Z11DisplayTexthhPc+0xe>
     782:	31 97       	sbiw	r30, 0x01	; 1
     784:	e4 1b       	sub	r30, r20
     786:	f5 0b       	sbc	r31, r21
     788:	1e 16       	cp	r1, r30
     78a:	1f 06       	cpc	r1, r31
     78c:	8c f4       	brge	.+34     	; 0x7b0 <_Z11DisplayTexthhPc+0x42>
     78e:	d6 2f       	mov	r29, r22
     790:	8a 01       	movw	r16, r20
     792:	7a 01       	movw	r14, r20
     794:	ee 0e       	add	r14, r30
     796:	ff 1e       	adc	r15, r31
     798:	c8 2f       	mov	r28, r24
     79a:	f8 01       	movw	r30, r16
     79c:	41 91       	ld	r20, Z+
     79e:	8f 01       	movw	r16, r30
     7a0:	6d 2f       	mov	r22, r29
     7a2:	8c 2f       	mov	r24, r28
     7a4:	0e 94 78 03 	call	0x6f0	; 0x6f0 <_Z11DisplayCharhhc>
     7a8:	ca 5f       	subi	r28, 0xFA	; 250
     7aa:	0e 15       	cp	r16, r14
     7ac:	1f 05       	cpc	r17, r15
     7ae:	a9 f7       	brne	.-22     	; 0x79a <_Z11DisplayTexthhPc+0x2c>
     7b0:	df 91       	pop	r29
     7b2:	cf 91       	pop	r28
     7b4:	1f 91       	pop	r17
     7b6:	0f 91       	pop	r16
     7b8:	ff 90       	pop	r15
     7ba:	ef 90       	pop	r14
     7bc:	08 95       	ret

000007be <_ZN6parserC1Ev>:
     7be:	fc 01       	movw	r30, r24
     7c0:	11 82       	std	Z+1, r1	; 0x01
     7c2:	10 82       	st	Z, r1
     7c4:	b1 96       	adiw	r30, 0x21	; 33
     7c6:	9c 01       	movw	r18, r24
     7c8:	27 5b       	subi	r18, 0xB7	; 183
     7ca:	3f 4f       	sbci	r19, 0xFF	; 255
     7cc:	11 92       	st	Z+, r1
     7ce:	11 92       	st	Z+, r1
     7d0:	11 92       	st	Z+, r1
     7d2:	11 92       	st	Z+, r1
     7d4:	e2 17       	cp	r30, r18
     7d6:	f3 07       	cpc	r31, r19
     7d8:	c9 f7       	brne	.-14     	; 0x7cc <_ZN6parserC1Ev+0xe>
     7da:	fc 01       	movw	r30, r24
     7dc:	e7 5b       	subi	r30, 0xB7	; 183
     7de:	ff 4f       	sbci	r31, 0xFF	; 255
     7e0:	10 82       	st	Z, r1
     7e2:	08 95       	ret

000007e4 <_ZN6parser9get_tokenEv>:
     7e4:	af 92       	push	r10
     7e6:	bf 92       	push	r11
     7e8:	cf 92       	push	r12
     7ea:	df 92       	push	r13
     7ec:	ef 92       	push	r14
     7ee:	ff 92       	push	r15
     7f0:	0f 93       	push	r16
     7f2:	1f 93       	push	r17
     7f4:	cf 93       	push	r28
     7f6:	df 93       	push	r29
     7f8:	6c 01       	movw	r12, r24
     7fa:	dc 01       	movw	r26, r24
     7fc:	90 96       	adiw	r26, 0x20	; 32
     7fe:	1c 92       	st	X, r1
     800:	90 97       	sbiw	r26, 0x20	; 32
     802:	12 96       	adiw	r26, 0x02	; 2
     804:	1c 92       	st	X, r1
     806:	12 97       	sbiw	r26, 0x02	; 2
     808:	ed 91       	ld	r30, X+
     80a:	fc 91       	ld	r31, X
     80c:	80 81       	ld	r24, Z
     80e:	88 23       	and	r24, r24
     810:	09 f4       	brne	.+2      	; 0x814 <_ZN6parser9get_tokenEv+0x30>
     812:	a9 c0       	rjmp	.+338    	; 0x966 <__stack+0x107>
     814:	f6 01       	movw	r30, r12
     816:	c0 81       	ld	r28, Z
     818:	d1 81       	ldd	r29, Z+1	; 0x01
     81a:	f8 80       	ld	r15, Y
     81c:	0f 2d       	mov	r16, r15
     81e:	10 e0       	ldi	r17, 0x00	; 0
     820:	c8 01       	movw	r24, r16
     822:	0e 94 b7 1d 	call	0x3b6e	; 0x3b6e <isspace>
     826:	89 2b       	or	r24, r25
     828:	29 f0       	breq	.+10     	; 0x834 <_ZN6parser9get_tokenEv+0x50>
     82a:	21 96       	adiw	r28, 0x01	; 1
     82c:	d6 01       	movw	r26, r12
     82e:	cd 93       	st	X+, r28
     830:	dc 93       	st	X, r29
     832:	f0 cf       	rjmp	.-32     	; 0x814 <_ZN6parser9get_tokenEv+0x30>
     834:	b8 01       	movw	r22, r16
     836:	84 e0       	ldi	r24, 0x04	; 4
     838:	91 e0       	ldi	r25, 0x01	; 1
     83a:	0e 94 d3 1d 	call	0x3ba6	; 0x3ba6 <strchr>
     83e:	89 2b       	or	r24, r25
     840:	89 f0       	breq	.+34     	; 0x864 <__stack+0x5>
     842:	81 e0       	ldi	r24, 0x01	; 1
     844:	f6 01       	movw	r30, r12
     846:	80 a3       	std	Z+32, r24	; 0x20
     848:	56 01       	movw	r10, r12
     84a:	f3 e0       	ldi	r31, 0x03	; 3
     84c:	af 0e       	add	r10, r31
     84e:	b1 1c       	adc	r11, r1
     850:	ce 01       	movw	r24, r28
     852:	01 96       	adiw	r24, 0x01	; 1
     854:	d6 01       	movw	r26, r12
     856:	11 96       	adiw	r26, 0x01	; 1
     858:	9c 93       	st	X, r25
     85a:	8e 93       	st	-X, r24
     85c:	88 81       	ld	r24, Y
     85e:	12 96       	adiw	r26, 0x02	; 2
     860:	8c 93       	st	X, r24
     862:	6b c0       	rjmp	.+214    	; 0x93a <__stack+0xdb>
     864:	56 01       	movw	r10, r12
     866:	b2 e0       	ldi	r27, 0x02	; 2
     868:	ab 0e       	add	r10, r27
     86a:	b1 1c       	adc	r11, r1
     86c:	c8 01       	movw	r24, r16
     86e:	0e 94 af 1d 	call	0x3b5e	; 0x3b5e <isalpha>
     872:	89 2b       	or	r24, r25
     874:	b9 f1       	breq	.+110    	; 0x8e4 <__stack+0x85>
     876:	75 01       	movw	r14, r10
     878:	57 01       	movw	r10, r14
     87a:	f6 01       	movw	r30, r12
     87c:	c0 81       	ld	r28, Z
     87e:	d1 81       	ldd	r29, Z+1	; 0x01
     880:	18 81       	ld	r17, Y
     882:	61 2f       	mov	r22, r17
     884:	70 e0       	ldi	r23, 0x00	; 0
     886:	8e e0       	ldi	r24, 0x0E	; 14
     888:	91 e0       	ldi	r25, 0x01	; 1
     88a:	0e 94 d3 1d 	call	0x3ba6	; 0x3ba6 <strchr>
     88e:	89 2b       	or	r24, r25
     890:	89 f4       	brne	.+34     	; 0x8b4 <__stack+0x55>
     892:	11 23       	and	r17, r17
     894:	79 f0       	breq	.+30     	; 0x8b4 <__stack+0x55>
     896:	ce 01       	movw	r24, r28
     898:	01 96       	adiw	r24, 0x01	; 1
     89a:	d6 01       	movw	r26, r12
     89c:	8d 93       	st	X+, r24
     89e:	9c 93       	st	X, r25
     8a0:	88 81       	ld	r24, Y
     8a2:	90 e0       	ldi	r25, 0x00	; 0
     8a4:	0e 94 c0 1d 	call	0x3b80	; 0x3b80 <toupper>
     8a8:	f7 01       	movw	r30, r14
     8aa:	80 83       	st	Z, r24
     8ac:	ff ef       	ldi	r31, 0xFF	; 255
     8ae:	ef 1a       	sub	r14, r31
     8b0:	ff 0a       	sbc	r15, r31
     8b2:	e2 cf       	rjmp	.-60     	; 0x878 <__stack+0x19>
     8b4:	d6 01       	movw	r26, r12
     8b6:	cd 91       	ld	r28, X+
     8b8:	dc 91       	ld	r29, X
     8ba:	18 81       	ld	r17, Y
     8bc:	81 2f       	mov	r24, r17
     8be:	90 e0       	ldi	r25, 0x00	; 0
     8c0:	0e 94 b7 1d 	call	0x3b6e	; 0x3b6e <isspace>
     8c4:	89 2b       	or	r24, r25
     8c6:	29 f0       	breq	.+10     	; 0x8d2 <__stack+0x73>
     8c8:	21 96       	adiw	r28, 0x01	; 1
     8ca:	f6 01       	movw	r30, r12
     8cc:	d1 83       	std	Z+1, r29	; 0x01
     8ce:	c0 83       	st	Z, r28
     8d0:	f1 cf       	rjmp	.-30     	; 0x8b4 <__stack+0x55>
     8d2:	18 32       	cpi	r17, 0x28	; 40
     8d4:	11 f0       	breq	.+4      	; 0x8da <__stack+0x7b>
     8d6:	82 e0       	ldi	r24, 0x02	; 2
     8d8:	01 c0       	rjmp	.+2      	; 0x8dc <__stack+0x7d>
     8da:	84 e0       	ldi	r24, 0x04	; 4
     8dc:	d6 01       	movw	r26, r12
     8de:	90 96       	adiw	r26, 0x20	; 32
     8e0:	8c 93       	st	X, r24
     8e2:	2b c0       	rjmp	.+86     	; 0x93a <__stack+0xdb>
     8e4:	8f 2d       	mov	r24, r15
     8e6:	90 e0       	ldi	r25, 0x00	; 0
     8e8:	c0 97       	sbiw	r24, 0x30	; 48
     8ea:	0a 97       	sbiw	r24, 0x0a	; 10
     8ec:	18 f0       	brcs	.+6      	; 0x8f4 <__stack+0x95>
     8ee:	be e2       	ldi	r27, 0x2E	; 46
     8f0:	fb 12       	cpse	r15, r27
     8f2:	23 c0       	rjmp	.+70     	; 0x93a <__stack+0xdb>
     8f4:	75 01       	movw	r14, r10
     8f6:	57 01       	movw	r10, r14
     8f8:	f6 01       	movw	r30, r12
     8fa:	c0 81       	ld	r28, Z
     8fc:	d1 81       	ldd	r29, Z+1	; 0x01
     8fe:	18 81       	ld	r17, Y
     900:	61 2f       	mov	r22, r17
     902:	70 e0       	ldi	r23, 0x00	; 0
     904:	8e e0       	ldi	r24, 0x0E	; 14
     906:	91 e0       	ldi	r25, 0x01	; 1
     908:	0e 94 d3 1d 	call	0x3ba6	; 0x3ba6 <strchr>
     90c:	89 2b       	or	r24, r25
     90e:	89 f4       	brne	.+34     	; 0x932 <__stack+0xd3>
     910:	11 23       	and	r17, r17
     912:	79 f0       	breq	.+30     	; 0x932 <__stack+0xd3>
     914:	ce 01       	movw	r24, r28
     916:	01 96       	adiw	r24, 0x01	; 1
     918:	d6 01       	movw	r26, r12
     91a:	8d 93       	st	X+, r24
     91c:	9c 93       	st	X, r25
     91e:	88 81       	ld	r24, Y
     920:	90 e0       	ldi	r25, 0x00	; 0
     922:	0e 94 c0 1d 	call	0x3b80	; 0x3b80 <toupper>
     926:	f7 01       	movw	r30, r14
     928:	80 83       	st	Z, r24
     92a:	ff ef       	ldi	r31, 0xFF	; 255
     92c:	ef 1a       	sub	r14, r31
     92e:	ff 0a       	sbc	r15, r31
     930:	e2 cf       	rjmp	.-60     	; 0x8f6 <__stack+0x97>
     932:	83 e0       	ldi	r24, 0x03	; 3
     934:	d6 01       	movw	r26, r12
     936:	90 96       	adiw	r26, 0x20	; 32
     938:	8c 93       	st	X, r24
     93a:	f5 01       	movw	r30, r10
     93c:	10 82       	st	Z, r1
     93e:	d6 01       	movw	r26, r12
     940:	90 96       	adiw	r26, 0x20	; 32
     942:	8c 91       	ld	r24, X
     944:	90 97       	sbiw	r26, 0x20	; 32
     946:	82 30       	cpi	r24, 0x02	; 2
     948:	71 f4       	brne	.+28     	; 0x966 <__stack+0x107>
     94a:	13 96       	adiw	r26, 0x03	; 3
     94c:	8c 91       	ld	r24, X
     94e:	13 97       	sbiw	r26, 0x03	; 3
     950:	88 23       	and	r24, r24
     952:	49 f0       	breq	.+18     	; 0x966 <__stack+0x107>
     954:	a7 5b       	subi	r26, 0xB7	; 183
     956:	bf 4f       	sbci	r27, 0xFF	; 255
     958:	8d e2       	ldi	r24, 0x2D	; 45
     95a:	eb e1       	ldi	r30, 0x1B	; 27
     95c:	f1 e0       	ldi	r31, 0x01	; 1
     95e:	01 90       	ld	r0, Z+
     960:	0d 92       	st	X+, r0
     962:	8a 95       	dec	r24
     964:	e1 f7       	brne	.-8      	; 0x95e <__stack+0xff>
     966:	df 91       	pop	r29
     968:	cf 91       	pop	r28
     96a:	1f 91       	pop	r17
     96c:	0f 91       	pop	r16
     96e:	ff 90       	pop	r15
     970:	ef 90       	pop	r14
     972:	df 90       	pop	r13
     974:	cf 90       	pop	r12
     976:	bf 90       	pop	r11
     978:	af 90       	pop	r10
     97a:	08 95       	ret

0000097c <_ZN6parser9eval_exp2ERd>:
     97c:	ef 92       	push	r14
     97e:	ff 92       	push	r15
     980:	0f 93       	push	r16
     982:	1f 93       	push	r17
     984:	cf 93       	push	r28
     986:	df 93       	push	r29
     988:	00 d0       	rcall	.+0      	; 0x98a <_ZN6parser9eval_exp2ERd+0xe>
     98a:	00 d0       	rcall	.+0      	; 0x98c <_ZN6parser9eval_exp2ERd+0x10>
     98c:	cd b7       	in	r28, 0x3d	; 61
     98e:	de b7       	in	r29, 0x3e	; 62
     990:	8c 01       	movw	r16, r24
     992:	7b 01       	movw	r14, r22
     994:	0e 94 c3 07 	call	0xf86	; 0xf86 <_ZN6parser9eval_exp3ERd>
     998:	f8 01       	movw	r30, r16
     99a:	82 81       	ldd	r24, Z+2	; 0x02
     99c:	8b 32       	cpi	r24, 0x2B	; 43
     99e:	e1 f0       	breq	.+56     	; 0x9d8 <_ZN6parser9eval_exp2ERd+0x5c>
     9a0:	8d 32       	cpi	r24, 0x2D	; 45
     9a2:	a1 f5       	brne	.+104    	; 0xa0c <_ZN6parser9eval_exp2ERd+0x90>
     9a4:	c8 01       	movw	r24, r16
     9a6:	0e 94 f2 03 	call	0x7e4	; 0x7e4 <_ZN6parser9get_tokenEv>
     9aa:	be 01       	movw	r22, r28
     9ac:	6f 5f       	subi	r22, 0xFF	; 255
     9ae:	7f 4f       	sbci	r23, 0xFF	; 255
     9b0:	c8 01       	movw	r24, r16
     9b2:	0e 94 c3 07 	call	0xf86	; 0xf86 <_ZN6parser9eval_exp3ERd>
     9b6:	29 81       	ldd	r18, Y+1	; 0x01
     9b8:	3a 81       	ldd	r19, Y+2	; 0x02
     9ba:	4b 81       	ldd	r20, Y+3	; 0x03
     9bc:	5c 81       	ldd	r21, Y+4	; 0x04
     9be:	f7 01       	movw	r30, r14
     9c0:	60 81       	ld	r22, Z
     9c2:	71 81       	ldd	r23, Z+1	; 0x01
     9c4:	82 81       	ldd	r24, Z+2	; 0x02
     9c6:	93 81       	ldd	r25, Z+3	; 0x03
     9c8:	0e 94 7d 16 	call	0x2cfa	; 0x2cfa <__subsf3>
     9cc:	f7 01       	movw	r30, r14
     9ce:	60 83       	st	Z, r22
     9d0:	71 83       	std	Z+1, r23	; 0x01
     9d2:	82 83       	std	Z+2, r24	; 0x02
     9d4:	93 83       	std	Z+3, r25	; 0x03
     9d6:	e0 cf       	rjmp	.-64     	; 0x998 <_ZN6parser9eval_exp2ERd+0x1c>
     9d8:	c8 01       	movw	r24, r16
     9da:	0e 94 f2 03 	call	0x7e4	; 0x7e4 <_ZN6parser9get_tokenEv>
     9de:	be 01       	movw	r22, r28
     9e0:	6f 5f       	subi	r22, 0xFF	; 255
     9e2:	7f 4f       	sbci	r23, 0xFF	; 255
     9e4:	c8 01       	movw	r24, r16
     9e6:	0e 94 c3 07 	call	0xf86	; 0xf86 <_ZN6parser9eval_exp3ERd>
     9ea:	29 81       	ldd	r18, Y+1	; 0x01
     9ec:	3a 81       	ldd	r19, Y+2	; 0x02
     9ee:	4b 81       	ldd	r20, Y+3	; 0x03
     9f0:	5c 81       	ldd	r21, Y+4	; 0x04
     9f2:	f7 01       	movw	r30, r14
     9f4:	60 81       	ld	r22, Z
     9f6:	71 81       	ldd	r23, Z+1	; 0x01
     9f8:	82 81       	ldd	r24, Z+2	; 0x02
     9fa:	93 81       	ldd	r25, Z+3	; 0x03
     9fc:	0e 94 7e 16 	call	0x2cfc	; 0x2cfc <__addsf3>
     a00:	f7 01       	movw	r30, r14
     a02:	60 83       	st	Z, r22
     a04:	71 83       	std	Z+1, r23	; 0x01
     a06:	82 83       	std	Z+2, r24	; 0x02
     a08:	93 83       	std	Z+3, r25	; 0x03
     a0a:	c6 cf       	rjmp	.-116    	; 0x998 <_ZN6parser9eval_exp2ERd+0x1c>
     a0c:	0f 90       	pop	r0
     a0e:	0f 90       	pop	r0
     a10:	0f 90       	pop	r0
     a12:	0f 90       	pop	r0
     a14:	df 91       	pop	r29
     a16:	cf 91       	pop	r28
     a18:	1f 91       	pop	r17
     a1a:	0f 91       	pop	r16
     a1c:	ff 90       	pop	r15
     a1e:	ef 90       	pop	r14
     a20:	08 95       	ret

00000a22 <_ZN6parser9eval_exp6ERd>:
     a22:	df 92       	push	r13
     a24:	ef 92       	push	r14
     a26:	ff 92       	push	r15
     a28:	0f 93       	push	r16
     a2a:	1f 93       	push	r17
     a2c:	cf 93       	push	r28
     a2e:	df 93       	push	r29
     a30:	cd b7       	in	r28, 0x3d	; 61
     a32:	de b7       	in	r29, 0x3e	; 62
     a34:	6e 97       	sbiw	r28, 0x1e	; 30
     a36:	0f b6       	in	r0, 0x3f	; 63
     a38:	f8 94       	cli
     a3a:	de bf       	out	0x3e, r29	; 62
     a3c:	0f be       	out	0x3f, r0	; 63
     a3e:	cd bf       	out	0x3d, r28	; 61
     a40:	8c 01       	movw	r16, r24
     a42:	7b 01       	movw	r14, r22
     a44:	dc 01       	movw	r26, r24
     a46:	90 96       	adiw	r26, 0x20	; 32
     a48:	dc 90       	ld	r13, X
     a4a:	b4 e0       	ldi	r27, 0x04	; 4
     a4c:	db 12       	cpse	r13, r27
     a4e:	0a c0       	rjmp	.+20     	; 0xa64 <_ZN6parser9eval_exp6ERd+0x42>
     a50:	bc 01       	movw	r22, r24
     a52:	6e 5f       	subi	r22, 0xFE	; 254
     a54:	7f 4f       	sbci	r23, 0xFF	; 255
     a56:	ce 01       	movw	r24, r28
     a58:	01 96       	adiw	r24, 0x01	; 1
     a5a:	0e 94 e7 1d 	call	0x3bce	; 0x3bce <strcpy>
     a5e:	c8 01       	movw	r24, r16
     a60:	0e 94 f2 03 	call	0x7e4	; 0x7e4 <_ZN6parser9get_tokenEv>
     a64:	d8 01       	movw	r26, r16
     a66:	12 96       	adiw	r26, 0x02	; 2
     a68:	ec 91       	ld	r30, X
     a6a:	e8 32       	cpi	r30, 0x28	; 40
     a6c:	09 f0       	breq	.+2      	; 0xa70 <_ZN6parser9eval_exp6ERd+0x4e>
     a6e:	db c1       	rjmp	.+950    	; 0xe26 <_ZN6parser9eval_exp6ERd+0x404>
     a70:	c8 01       	movw	r24, r16
     a72:	0e 94 f2 03 	call	0x7e4	; 0x7e4 <_ZN6parser9get_tokenEv>
     a76:	b7 01       	movw	r22, r14
     a78:	c8 01       	movw	r24, r16
     a7a:	0e 94 be 04 	call	0x97c	; 0x97c <_ZN6parser9eval_exp2ERd>
     a7e:	f8 01       	movw	r30, r16
     a80:	82 81       	ldd	r24, Z+2	; 0x02
     a82:	89 32       	cpi	r24, 0x29	; 41
     a84:	51 f0       	breq	.+20     	; 0xa9a <_ZN6parser9eval_exp6ERd+0x78>
     a86:	87 e1       	ldi	r24, 0x17	; 23
     a88:	e8 e4       	ldi	r30, 0x48	; 72
     a8a:	f1 e0       	ldi	r31, 0x01	; 1
     a8c:	d8 01       	movw	r26, r16
     a8e:	a7 5b       	subi	r26, 0xB7	; 183
     a90:	bf 4f       	sbci	r27, 0xFF	; 255
     a92:	01 90       	ld	r0, Z+
     a94:	0d 92       	st	X+, r0
     a96:	8a 95       	dec	r24
     a98:	e1 f7       	brne	.-8      	; 0xa92 <_ZN6parser9eval_exp6ERd+0x70>
     a9a:	f4 e0       	ldi	r31, 0x04	; 4
     a9c:	df 12       	cpse	r13, r31
     a9e:	bf c1       	rjmp	.+894    	; 0xe1e <_ZN6parser9eval_exp6ERd+0x3fc>
     aa0:	60 e6       	ldi	r22, 0x60	; 96
     aa2:	71 e0       	ldi	r23, 0x01	; 1
     aa4:	ce 01       	movw	r24, r28
     aa6:	01 96       	adiw	r24, 0x01	; 1
     aa8:	0e 94 de 1d 	call	0x3bbc	; 0x3bbc <strcmp>
     aac:	89 2b       	or	r24, r25
     aae:	99 f4       	brne	.+38     	; 0xad6 <_ZN6parser9eval_exp6ERd+0xb4>
     ab0:	25 e3       	ldi	r18, 0x35	; 53
     ab2:	3a ef       	ldi	r19, 0xFA	; 250
     ab4:	4e e8       	ldi	r20, 0x8E	; 142
     ab6:	5c e3       	ldi	r21, 0x3C	; 60
     ab8:	d7 01       	movw	r26, r14
     aba:	6d 91       	ld	r22, X+
     abc:	7d 91       	ld	r23, X+
     abe:	8d 91       	ld	r24, X+
     ac0:	9c 91       	ld	r25, X
     ac2:	0e 94 ae 1a 	call	0x355c	; 0x355c <__mulsf3>
     ac6:	0e 94 b5 1b 	call	0x376a	; 0x376a <sin>
     aca:	f7 01       	movw	r30, r14
     acc:	60 83       	st	Z, r22
     ace:	71 83       	std	Z+1, r23	; 0x01
     ad0:	82 83       	std	Z+2, r24	; 0x02
     ad2:	93 83       	std	Z+3, r25	; 0x03
     ad4:	a4 c1       	rjmp	.+840    	; 0xe1e <_ZN6parser9eval_exp6ERd+0x3fc>
     ad6:	65 e6       	ldi	r22, 0x65	; 101
     ad8:	71 e0       	ldi	r23, 0x01	; 1
     ada:	ce 01       	movw	r24, r28
     adc:	01 96       	adiw	r24, 0x01	; 1
     ade:	0e 94 de 1d 	call	0x3bbc	; 0x3bbc <strcmp>
     ae2:	89 2b       	or	r24, r25
     ae4:	99 f4       	brne	.+38     	; 0xb0c <_ZN6parser9eval_exp6ERd+0xea>
     ae6:	25 e3       	ldi	r18, 0x35	; 53
     ae8:	3a ef       	ldi	r19, 0xFA	; 250
     aea:	4e e8       	ldi	r20, 0x8E	; 142
     aec:	5c e3       	ldi	r21, 0x3C	; 60
     aee:	d7 01       	movw	r26, r14
     af0:	6d 91       	ld	r22, X+
     af2:	7d 91       	ld	r23, X+
     af4:	8d 91       	ld	r24, X+
     af6:	9c 91       	ld	r25, X
     af8:	0e 94 ae 1a 	call	0x355c	; 0x355c <__mulsf3>
     afc:	0e 94 50 17 	call	0x2ea0	; 0x2ea0 <cos>
     b00:	f7 01       	movw	r30, r14
     b02:	60 83       	st	Z, r22
     b04:	71 83       	std	Z+1, r23	; 0x01
     b06:	82 83       	std	Z+2, r24	; 0x02
     b08:	93 83       	std	Z+3, r25	; 0x03
     b0a:	89 c1       	rjmp	.+786    	; 0xe1e <_ZN6parser9eval_exp6ERd+0x3fc>
     b0c:	6a e6       	ldi	r22, 0x6A	; 106
     b0e:	71 e0       	ldi	r23, 0x01	; 1
     b10:	ce 01       	movw	r24, r28
     b12:	01 96       	adiw	r24, 0x01	; 1
     b14:	0e 94 de 1d 	call	0x3bbc	; 0x3bbc <strcmp>
     b18:	89 2b       	or	r24, r25
     b1a:	99 f4       	brne	.+38     	; 0xb42 <_ZN6parser9eval_exp6ERd+0x120>
     b1c:	25 e3       	ldi	r18, 0x35	; 53
     b1e:	3a ef       	ldi	r19, 0xFA	; 250
     b20:	4e e8       	ldi	r20, 0x8E	; 142
     b22:	5c e3       	ldi	r21, 0x3C	; 60
     b24:	d7 01       	movw	r26, r14
     b26:	6d 91       	ld	r22, X+
     b28:	7d 91       	ld	r23, X+
     b2a:	8d 91       	ld	r24, X+
     b2c:	9c 91       	ld	r25, X
     b2e:	0e 94 ae 1a 	call	0x355c	; 0x355c <__mulsf3>
     b32:	0e 94 3b 1c 	call	0x3876	; 0x3876 <tan>
     b36:	f7 01       	movw	r30, r14
     b38:	60 83       	st	Z, r22
     b3a:	71 83       	std	Z+1, r23	; 0x01
     b3c:	82 83       	std	Z+2, r24	; 0x02
     b3e:	93 83       	std	Z+3, r25	; 0x03
     b40:	6e c1       	rjmp	.+732    	; 0xe1e <_ZN6parser9eval_exp6ERd+0x3fc>
     b42:	6f e5       	ldi	r22, 0x5F	; 95
     b44:	71 e0       	ldi	r23, 0x01	; 1
     b46:	ce 01       	movw	r24, r28
     b48:	01 96       	adiw	r24, 0x01	; 1
     b4a:	0e 94 de 1d 	call	0x3bbc	; 0x3bbc <strcmp>
     b4e:	89 2b       	or	r24, r25
     b50:	99 f4       	brne	.+38     	; 0xb78 <_ZN6parser9eval_exp6ERd+0x156>
     b52:	d7 01       	movw	r26, r14
     b54:	6d 91       	ld	r22, X+
     b56:	7d 91       	ld	r23, X+
     b58:	8d 91       	ld	r24, X+
     b5a:	9c 91       	ld	r25, X
     b5c:	0e 94 ea 16 	call	0x2dd4	; 0x2dd4 <asin>
     b60:	20 ee       	ldi	r18, 0xE0	; 224
     b62:	3e e2       	ldi	r19, 0x2E	; 46
     b64:	45 e6       	ldi	r20, 0x65	; 101
     b66:	52 e4       	ldi	r21, 0x42	; 66
     b68:	0e 94 ae 1a 	call	0x355c	; 0x355c <__mulsf3>
     b6c:	f7 01       	movw	r30, r14
     b6e:	60 83       	st	Z, r22
     b70:	71 83       	std	Z+1, r23	; 0x01
     b72:	82 83       	std	Z+2, r24	; 0x02
     b74:	93 83       	std	Z+3, r25	; 0x03
     b76:	53 c1       	rjmp	.+678    	; 0xe1e <_ZN6parser9eval_exp6ERd+0x3fc>
     b78:	64 e6       	ldi	r22, 0x64	; 100
     b7a:	71 e0       	ldi	r23, 0x01	; 1
     b7c:	ce 01       	movw	r24, r28
     b7e:	01 96       	adiw	r24, 0x01	; 1
     b80:	0e 94 de 1d 	call	0x3bbc	; 0x3bbc <strcmp>
     b84:	89 2b       	or	r24, r25
     b86:	99 f4       	brne	.+38     	; 0xbae <_ZN6parser9eval_exp6ERd+0x18c>
     b88:	d7 01       	movw	r26, r14
     b8a:	6d 91       	ld	r22, X+
     b8c:	7d 91       	ld	r23, X+
     b8e:	8d 91       	ld	r24, X+
     b90:	9c 91       	ld	r25, X
     b92:	0e 94 6c 16 	call	0x2cd8	; 0x2cd8 <acos>
     b96:	20 ee       	ldi	r18, 0xE0	; 224
     b98:	3e e2       	ldi	r19, 0x2E	; 46
     b9a:	45 e6       	ldi	r20, 0x65	; 101
     b9c:	52 e4       	ldi	r21, 0x42	; 66
     b9e:	0e 94 ae 1a 	call	0x355c	; 0x355c <__mulsf3>
     ba2:	f7 01       	movw	r30, r14
     ba4:	60 83       	st	Z, r22
     ba6:	71 83       	std	Z+1, r23	; 0x01
     ba8:	82 83       	std	Z+2, r24	; 0x02
     baa:	93 83       	std	Z+3, r25	; 0x03
     bac:	38 c1       	rjmp	.+624    	; 0xe1e <_ZN6parser9eval_exp6ERd+0x3fc>
     bae:	69 e6       	ldi	r22, 0x69	; 105
     bb0:	71 e0       	ldi	r23, 0x01	; 1
     bb2:	ce 01       	movw	r24, r28
     bb4:	01 96       	adiw	r24, 0x01	; 1
     bb6:	0e 94 de 1d 	call	0x3bbc	; 0x3bbc <strcmp>
     bba:	89 2b       	or	r24, r25
     bbc:	99 f4       	brne	.+38     	; 0xbe4 <_ZN6parser9eval_exp6ERd+0x1c2>
     bbe:	d7 01       	movw	r26, r14
     bc0:	6d 91       	ld	r22, X+
     bc2:	7d 91       	ld	r23, X+
     bc4:	8d 91       	ld	r24, X+
     bc6:	9c 91       	ld	r25, X
     bc8:	0e 94 05 17 	call	0x2e0a	; 0x2e0a <atan>
     bcc:	20 ee       	ldi	r18, 0xE0	; 224
     bce:	3e e2       	ldi	r19, 0x2E	; 46
     bd0:	45 e6       	ldi	r20, 0x65	; 101
     bd2:	52 e4       	ldi	r21, 0x42	; 66
     bd4:	0e 94 ae 1a 	call	0x355c	; 0x355c <__mulsf3>
     bd8:	f7 01       	movw	r30, r14
     bda:	60 83       	st	Z, r22
     bdc:	71 83       	std	Z+1, r23	; 0x01
     bde:	82 83       	std	Z+2, r24	; 0x02
     be0:	93 83       	std	Z+3, r25	; 0x03
     be2:	1d c1       	rjmp	.+570    	; 0xe1e <_ZN6parser9eval_exp6ERd+0x3fc>
     be4:	6f e6       	ldi	r22, 0x6F	; 111
     be6:	71 e0       	ldi	r23, 0x01	; 1
     be8:	ce 01       	movw	r24, r28
     bea:	01 96       	adiw	r24, 0x01	; 1
     bec:	0e 94 de 1d 	call	0x3bbc	; 0x3bbc <strcmp>
     bf0:	89 2b       	or	r24, r25
     bf2:	69 f4       	brne	.+26     	; 0xc0e <_ZN6parser9eval_exp6ERd+0x1ec>
     bf4:	d7 01       	movw	r26, r14
     bf6:	6d 91       	ld	r22, X+
     bf8:	7d 91       	ld	r23, X+
     bfa:	8d 91       	ld	r24, X+
     bfc:	9c 91       	ld	r25, X
     bfe:	0e 94 8f 1b 	call	0x371e	; 0x371e <sinh>
     c02:	f7 01       	movw	r30, r14
     c04:	60 83       	st	Z, r22
     c06:	71 83       	std	Z+1, r23	; 0x01
     c08:	82 83       	std	Z+2, r24	; 0x02
     c0a:	93 83       	std	Z+3, r25	; 0x03
     c0c:	08 c1       	rjmp	.+528    	; 0xe1e <_ZN6parser9eval_exp6ERd+0x3fc>
     c0e:	65 e7       	ldi	r22, 0x75	; 117
     c10:	71 e0       	ldi	r23, 0x01	; 1
     c12:	ce 01       	movw	r24, r28
     c14:	01 96       	adiw	r24, 0x01	; 1
     c16:	0e 94 de 1d 	call	0x3bbc	; 0x3bbc <strcmp>
     c1a:	89 2b       	or	r24, r25
     c1c:	69 f4       	brne	.+26     	; 0xc38 <_ZN6parser9eval_exp6ERd+0x216>
     c1e:	d7 01       	movw	r26, r14
     c20:	6d 91       	ld	r22, X+
     c22:	7d 91       	ld	r23, X+
     c24:	8d 91       	ld	r24, X+
     c26:	9c 91       	ld	r25, X
     c28:	0e 94 39 17 	call	0x2e72	; 0x2e72 <cosh>
     c2c:	f7 01       	movw	r30, r14
     c2e:	60 83       	st	Z, r22
     c30:	71 83       	std	Z+1, r23	; 0x01
     c32:	82 83       	std	Z+2, r24	; 0x02
     c34:	93 83       	std	Z+3, r25	; 0x03
     c36:	f3 c0       	rjmp	.+486    	; 0xe1e <_ZN6parser9eval_exp6ERd+0x3fc>
     c38:	6b e7       	ldi	r22, 0x7B	; 123
     c3a:	71 e0       	ldi	r23, 0x01	; 1
     c3c:	ce 01       	movw	r24, r28
     c3e:	01 96       	adiw	r24, 0x01	; 1
     c40:	0e 94 de 1d 	call	0x3bbc	; 0x3bbc <strcmp>
     c44:	89 2b       	or	r24, r25
     c46:	69 f4       	brne	.+26     	; 0xc62 <_ZN6parser9eval_exp6ERd+0x240>
     c48:	d7 01       	movw	r26, r14
     c4a:	6d 91       	ld	r22, X+
     c4c:	7d 91       	ld	r23, X+
     c4e:	8d 91       	ld	r24, X+
     c50:	9c 91       	ld	r25, X
     c52:	0e 94 07 1c 	call	0x380e	; 0x380e <tanh>
     c56:	f7 01       	movw	r30, r14
     c58:	60 83       	st	Z, r22
     c5a:	71 83       	std	Z+1, r23	; 0x01
     c5c:	82 83       	std	Z+2, r24	; 0x02
     c5e:	93 83       	std	Z+3, r25	; 0x03
     c60:	de c0       	rjmp	.+444    	; 0xe1e <_ZN6parser9eval_exp6ERd+0x3fc>
     c62:	6e e6       	ldi	r22, 0x6E	; 110
     c64:	71 e0       	ldi	r23, 0x01	; 1
     c66:	ce 01       	movw	r24, r28
     c68:	01 96       	adiw	r24, 0x01	; 1
     c6a:	0e 94 de 1d 	call	0x3bbc	; 0x3bbc <strcmp>
     c6e:	89 2b       	or	r24, r25
     c70:	69 f4       	brne	.+26     	; 0xc8c <_ZN6parser9eval_exp6ERd+0x26a>
     c72:	d7 01       	movw	r26, r14
     c74:	6d 91       	ld	r22, X+
     c76:	7d 91       	ld	r23, X+
     c78:	8d 91       	ld	r24, X+
     c7a:	9c 91       	ld	r25, X
     c7c:	0e 94 ea 16 	call	0x2dd4	; 0x2dd4 <asin>
     c80:	f7 01       	movw	r30, r14
     c82:	60 83       	st	Z, r22
     c84:	71 83       	std	Z+1, r23	; 0x01
     c86:	82 83       	std	Z+2, r24	; 0x02
     c88:	93 83       	std	Z+3, r25	; 0x03
     c8a:	c9 c0       	rjmp	.+402    	; 0xe1e <_ZN6parser9eval_exp6ERd+0x3fc>
     c8c:	64 e7       	ldi	r22, 0x74	; 116
     c8e:	71 e0       	ldi	r23, 0x01	; 1
     c90:	ce 01       	movw	r24, r28
     c92:	01 96       	adiw	r24, 0x01	; 1
     c94:	0e 94 de 1d 	call	0x3bbc	; 0x3bbc <strcmp>
     c98:	89 2b       	or	r24, r25
     c9a:	69 f4       	brne	.+26     	; 0xcb6 <_ZN6parser9eval_exp6ERd+0x294>
     c9c:	d7 01       	movw	r26, r14
     c9e:	6d 91       	ld	r22, X+
     ca0:	7d 91       	ld	r23, X+
     ca2:	8d 91       	ld	r24, X+
     ca4:	9c 91       	ld	r25, X
     ca6:	0e 94 6c 16 	call	0x2cd8	; 0x2cd8 <acos>
     caa:	f7 01       	movw	r30, r14
     cac:	60 83       	st	Z, r22
     cae:	71 83       	std	Z+1, r23	; 0x01
     cb0:	82 83       	std	Z+2, r24	; 0x02
     cb2:	93 83       	std	Z+3, r25	; 0x03
     cb4:	b4 c0       	rjmp	.+360    	; 0xe1e <_ZN6parser9eval_exp6ERd+0x3fc>
     cb6:	6a e7       	ldi	r22, 0x7A	; 122
     cb8:	71 e0       	ldi	r23, 0x01	; 1
     cba:	ce 01       	movw	r24, r28
     cbc:	01 96       	adiw	r24, 0x01	; 1
     cbe:	0e 94 de 1d 	call	0x3bbc	; 0x3bbc <strcmp>
     cc2:	89 2b       	or	r24, r25
     cc4:	69 f4       	brne	.+26     	; 0xce0 <_ZN6parser9eval_exp6ERd+0x2be>
     cc6:	d7 01       	movw	r26, r14
     cc8:	6d 91       	ld	r22, X+
     cca:	7d 91       	ld	r23, X+
     ccc:	8d 91       	ld	r24, X+
     cce:	9c 91       	ld	r25, X
     cd0:	0e 94 05 17 	call	0x2e0a	; 0x2e0a <atan>
     cd4:	f7 01       	movw	r30, r14
     cd6:	60 83       	st	Z, r22
     cd8:	71 83       	std	Z+1, r23	; 0x01
     cda:	82 83       	std	Z+2, r24	; 0x02
     cdc:	93 83       	std	Z+3, r25	; 0x03
     cde:	9f c0       	rjmp	.+318    	; 0xe1e <_ZN6parser9eval_exp6ERd+0x3fc>
     ce0:	60 e8       	ldi	r22, 0x80	; 128
     ce2:	71 e0       	ldi	r23, 0x01	; 1
     ce4:	ce 01       	movw	r24, r28
     ce6:	01 96       	adiw	r24, 0x01	; 1
     ce8:	0e 94 de 1d 	call	0x3bbc	; 0x3bbc <strcmp>
     cec:	89 2b       	or	r24, r25
     cee:	69 f4       	brne	.+26     	; 0xd0a <_ZN6parser9eval_exp6ERd+0x2e8>
     cf0:	d7 01       	movw	r26, r14
     cf2:	6d 91       	ld	r22, X+
     cf4:	7d 91       	ld	r23, X+
     cf6:	8d 91       	ld	r24, X+
     cf8:	9c 91       	ld	r25, X
     cfa:	0e 94 32 1a 	call	0x3464	; 0x3464 <log>
     cfe:	f7 01       	movw	r30, r14
     d00:	60 83       	st	Z, r22
     d02:	71 83       	std	Z+1, r23	; 0x01
     d04:	82 83       	std	Z+2, r24	; 0x02
     d06:	93 83       	std	Z+3, r25	; 0x03
     d08:	8a c0       	rjmp	.+276    	; 0xe1e <_ZN6parser9eval_exp6ERd+0x3fc>
     d0a:	63 e8       	ldi	r22, 0x83	; 131
     d0c:	71 e0       	ldi	r23, 0x01	; 1
     d0e:	ce 01       	movw	r24, r28
     d10:	01 96       	adiw	r24, 0x01	; 1
     d12:	0e 94 de 1d 	call	0x3bbc	; 0x3bbc <strcmp>
     d16:	89 2b       	or	r24, r25
     d18:	69 f4       	brne	.+26     	; 0xd34 <_ZN6parser9eval_exp6ERd+0x312>
     d1a:	d7 01       	movw	r26, r14
     d1c:	6d 91       	ld	r22, X+
     d1e:	7d 91       	ld	r23, X+
     d20:	8d 91       	ld	r24, X+
     d22:	9c 91       	ld	r25, X
     d24:	0e 94 22 1a 	call	0x3444	; 0x3444 <log10>
     d28:	f7 01       	movw	r30, r14
     d2a:	60 83       	st	Z, r22
     d2c:	71 83       	std	Z+1, r23	; 0x01
     d2e:	82 83       	std	Z+2, r24	; 0x02
     d30:	93 83       	std	Z+3, r25	; 0x03
     d32:	75 c0       	rjmp	.+234    	; 0xe1e <_ZN6parser9eval_exp6ERd+0x3fc>
     d34:	67 e8       	ldi	r22, 0x87	; 135
     d36:	71 e0       	ldi	r23, 0x01	; 1
     d38:	ce 01       	movw	r24, r28
     d3a:	01 96       	adiw	r24, 0x01	; 1
     d3c:	0e 94 de 1d 	call	0x3bbc	; 0x3bbc <strcmp>
     d40:	89 2b       	or	r24, r25
     d42:	69 f4       	brne	.+26     	; 0xd5e <_ZN6parser9eval_exp6ERd+0x33c>
     d44:	d7 01       	movw	r26, r14
     d46:	6d 91       	ld	r22, X+
     d48:	7d 91       	ld	r23, X+
     d4a:	8d 91       	ld	r24, X+
     d4c:	9c 91       	ld	r25, X
     d4e:	0e 94 cf 17 	call	0x2f9e	; 0x2f9e <exp>
     d52:	f7 01       	movw	r30, r14
     d54:	60 83       	st	Z, r22
     d56:	71 83       	std	Z+1, r23	; 0x01
     d58:	82 83       	std	Z+2, r24	; 0x02
     d5a:	93 83       	std	Z+3, r25	; 0x03
     d5c:	60 c0       	rjmp	.+192    	; 0xe1e <_ZN6parser9eval_exp6ERd+0x3fc>
     d5e:	6b e8       	ldi	r22, 0x8B	; 139
     d60:	71 e0       	ldi	r23, 0x01	; 1
     d62:	ce 01       	movw	r24, r28
     d64:	01 96       	adiw	r24, 0x01	; 1
     d66:	0e 94 de 1d 	call	0x3bbc	; 0x3bbc <strcmp>
     d6a:	89 2b       	or	r24, r25
     d6c:	69 f4       	brne	.+26     	; 0xd88 <_ZN6parser9eval_exp6ERd+0x366>
     d6e:	d7 01       	movw	r26, r14
     d70:	6d 91       	ld	r22, X+
     d72:	7d 91       	ld	r23, X+
     d74:	8d 91       	ld	r24, X+
     d76:	9c 91       	ld	r25, X
     d78:	0e 94 c3 1b 	call	0x3786	; 0x3786 <sqrt>
     d7c:	f7 01       	movw	r30, r14
     d7e:	60 83       	st	Z, r22
     d80:	71 83       	std	Z+1, r23	; 0x01
     d82:	82 83       	std	Z+2, r24	; 0x02
     d84:	93 83       	std	Z+3, r25	; 0x03
     d86:	4b c0       	rjmp	.+150    	; 0xe1e <_ZN6parser9eval_exp6ERd+0x3fc>
     d88:	60 e9       	ldi	r22, 0x90	; 144
     d8a:	71 e0       	ldi	r23, 0x01	; 1
     d8c:	ce 01       	movw	r24, r28
     d8e:	01 96       	adiw	r24, 0x01	; 1
     d90:	0e 94 de 1d 	call	0x3bbc	; 0x3bbc <strcmp>
     d94:	89 2b       	or	r24, r25
     d96:	79 f4       	brne	.+30     	; 0xdb6 <_ZN6parser9eval_exp6ERd+0x394>
     d98:	d7 01       	movw	r26, r14
     d9a:	6d 91       	ld	r22, X+
     d9c:	7d 91       	ld	r23, X+
     d9e:	8d 91       	ld	r24, X+
     da0:	9c 91       	ld	r25, X
     da2:	9b 01       	movw	r18, r22
     da4:	ac 01       	movw	r20, r24
     da6:	0e 94 ae 1a 	call	0x355c	; 0x355c <__mulsf3>
     daa:	f7 01       	movw	r30, r14
     dac:	60 83       	st	Z, r22
     dae:	71 83       	std	Z+1, r23	; 0x01
     db0:	82 83       	std	Z+2, r24	; 0x02
     db2:	93 83       	std	Z+3, r25	; 0x03
     db4:	34 c0       	rjmp	.+104    	; 0xe1e <_ZN6parser9eval_exp6ERd+0x3fc>
     db6:	64 e9       	ldi	r22, 0x94	; 148
     db8:	71 e0       	ldi	r23, 0x01	; 1
     dba:	ce 01       	movw	r24, r28
     dbc:	01 96       	adiw	r24, 0x01	; 1
     dbe:	0e 94 de 1d 	call	0x3bbc	; 0x3bbc <strcmp>
     dc2:	89 2b       	or	r24, r25
     dc4:	69 f4       	brne	.+26     	; 0xde0 <_ZN6parser9eval_exp6ERd+0x3be>
     dc6:	d7 01       	movw	r26, r14
     dc8:	6d 91       	ld	r22, X+
     dca:	7d 91       	ld	r23, X+
     dcc:	8d 91       	ld	r24, X+
     dce:	9c 91       	ld	r25, X
     dd0:	0e 94 6b 1b 	call	0x36d6	; 0x36d6 <round>
     dd4:	f7 01       	movw	r30, r14
     dd6:	60 83       	st	Z, r22
     dd8:	71 83       	std	Z+1, r23	; 0x01
     dda:	82 83       	std	Z+2, r24	; 0x02
     ddc:	93 83       	std	Z+3, r25	; 0x03
     dde:	1f c0       	rjmp	.+62     	; 0xe1e <_ZN6parser9eval_exp6ERd+0x3fc>
     de0:	6a e9       	ldi	r22, 0x9A	; 154
     de2:	71 e0       	ldi	r23, 0x01	; 1
     de4:	ce 01       	movw	r24, r28
     de6:	01 96       	adiw	r24, 0x01	; 1
     de8:	0e 94 de 1d 	call	0x3bbc	; 0x3bbc <strcmp>
     dec:	89 2b       	or	r24, r25
     dee:	69 f4       	brne	.+26     	; 0xe0a <_ZN6parser9eval_exp6ERd+0x3e8>
     df0:	d7 01       	movw	r26, r14
     df2:	6d 91       	ld	r22, X+
     df4:	7d 91       	ld	r23, X+
     df6:	8d 91       	ld	r24, X+
     df8:	9c 91       	ld	r25, X
     dfa:	0e 94 74 18 	call	0x30e8	; 0x30e8 <floor>
     dfe:	f7 01       	movw	r30, r14
     e00:	60 83       	st	Z, r22
     e02:	71 83       	std	Z+1, r23	; 0x01
     e04:	82 83       	std	Z+2, r24	; 0x02
     e06:	93 83       	std	Z+3, r25	; 0x03
     e08:	0a c0       	rjmp	.+20     	; 0xe1e <_ZN6parser9eval_exp6ERd+0x3fc>
     e0a:	81 e1       	ldi	r24, 0x11	; 17
     e0c:	ee e9       	ldi	r30, 0x9E	; 158
     e0e:	f1 e0       	ldi	r31, 0x01	; 1
     e10:	d8 01       	movw	r26, r16
     e12:	a7 5b       	subi	r26, 0xB7	; 183
     e14:	bf 4f       	sbci	r27, 0xFF	; 255
     e16:	01 90       	ld	r0, Z+
     e18:	0d 92       	st	X+, r0
     e1a:	8a 95       	dec	r24
     e1c:	e1 f7       	brne	.-8      	; 0xe16 <_ZN6parser9eval_exp6ERd+0x3f4>
     e1e:	c8 01       	movw	r24, r16
     e20:	0e 94 f2 03 	call	0x7e4	; 0x7e4 <_ZN6parser9get_tokenEv>
     e24:	36 c0       	rjmp	.+108    	; 0xe92 <_ZN6parser9eval_exp6ERd+0x470>
     e26:	d8 01       	movw	r26, r16
     e28:	90 96       	adiw	r26, 0x20	; 32
     e2a:	8c 91       	ld	r24, X
     e2c:	82 30       	cpi	r24, 0x02	; 2
     e2e:	19 f0       	breq	.+6      	; 0xe36 <_ZN6parser9eval_exp6ERd+0x414>
     e30:	83 30       	cpi	r24, 0x03	; 3
     e32:	b9 f0       	breq	.+46     	; 0xe62 <_ZN6parser9eval_exp6ERd+0x440>
     e34:	24 c0       	rjmp	.+72     	; 0xe7e <_ZN6parser9eval_exp6ERd+0x45c>
     e36:	f0 e0       	ldi	r31, 0x00	; 0
     e38:	e1 54       	subi	r30, 0x41	; 65
     e3a:	f1 09       	sbc	r31, r1
     e3c:	ee 0f       	add	r30, r30
     e3e:	ff 1f       	adc	r31, r31
     e40:	ee 0f       	add	r30, r30
     e42:	ff 1f       	adc	r31, r31
     e44:	e0 0f       	add	r30, r16
     e46:	f1 1f       	adc	r31, r17
     e48:	81 a1       	ldd	r24, Z+33	; 0x21
     e4a:	92 a1       	ldd	r25, Z+34	; 0x22
     e4c:	a3 a1       	ldd	r26, Z+35	; 0x23
     e4e:	b4 a1       	ldd	r27, Z+36	; 0x24
     e50:	f7 01       	movw	r30, r14
     e52:	80 83       	st	Z, r24
     e54:	91 83       	std	Z+1, r25	; 0x01
     e56:	a2 83       	std	Z+2, r26	; 0x02
     e58:	b3 83       	std	Z+3, r27	; 0x03
     e5a:	c8 01       	movw	r24, r16
     e5c:	0e 94 f2 03 	call	0x7e4	; 0x7e4 <_ZN6parser9get_tokenEv>
     e60:	18 c0       	rjmp	.+48     	; 0xe92 <_ZN6parser9eval_exp6ERd+0x470>
     e62:	c8 01       	movw	r24, r16
     e64:	02 96       	adiw	r24, 0x02	; 2
     e66:	0e 94 a8 1d 	call	0x3b50	; 0x3b50 <atof>
     e6a:	d7 01       	movw	r26, r14
     e6c:	6d 93       	st	X+, r22
     e6e:	7d 93       	st	X+, r23
     e70:	8d 93       	st	X+, r24
     e72:	9c 93       	st	X, r25
     e74:	13 97       	sbiw	r26, 0x03	; 3
     e76:	c8 01       	movw	r24, r16
     e78:	0e 94 f2 03 	call	0x7e4	; 0x7e4 <_ZN6parser9get_tokenEv>
     e7c:	0a c0       	rjmp	.+20     	; 0xe92 <_ZN6parser9eval_exp6ERd+0x470>
     e7e:	d8 01       	movw	r26, r16
     e80:	a7 5b       	subi	r26, 0xB7	; 183
     e82:	bf 4f       	sbci	r27, 0xFF	; 255
     e84:	8d e0       	ldi	r24, 0x0D	; 13
     e86:	ef ea       	ldi	r30, 0xAF	; 175
     e88:	f1 e0       	ldi	r31, 0x01	; 1
     e8a:	01 90       	ld	r0, Z+
     e8c:	0d 92       	st	X+, r0
     e8e:	8a 95       	dec	r24
     e90:	e1 f7       	brne	.-8      	; 0xe8a <_ZN6parser9eval_exp6ERd+0x468>
     e92:	6e 96       	adiw	r28, 0x1e	; 30
     e94:	0f b6       	in	r0, 0x3f	; 63
     e96:	f8 94       	cli
     e98:	de bf       	out	0x3e, r29	; 62
     e9a:	0f be       	out	0x3f, r0	; 63
     e9c:	cd bf       	out	0x3d, r28	; 61
     e9e:	df 91       	pop	r29
     ea0:	cf 91       	pop	r28
     ea2:	1f 91       	pop	r17
     ea4:	0f 91       	pop	r16
     ea6:	ff 90       	pop	r15
     ea8:	ef 90       	pop	r14
     eaa:	df 90       	pop	r13
     eac:	08 95       	ret

00000eae <_ZN6parser9eval_exp5ERd>:
     eae:	0f 93       	push	r16
     eb0:	1f 93       	push	r17
     eb2:	cf 93       	push	r28
     eb4:	df 93       	push	r29
     eb6:	ec 01       	movw	r28, r24
     eb8:	8b 01       	movw	r16, r22
     eba:	88 a1       	ldd	r24, Y+32	; 0x20
     ebc:	81 30       	cpi	r24, 0x01	; 1
     ebe:	19 f4       	brne	.+6      	; 0xec6 <_ZN6parser9eval_exp5ERd+0x18>
     ec0:	8a 81       	ldd	r24, Y+2	; 0x02
     ec2:	8b 32       	cpi	r24, 0x2B	; 43
     ec4:	41 f0       	breq	.+16     	; 0xed6 <_ZN6parser9eval_exp5ERd+0x28>
     ec6:	8a 81       	ldd	r24, Y+2	; 0x02
     ec8:	8d 32       	cpi	r24, 0x2D	; 45
     eca:	69 f0       	breq	.+26     	; 0xee6 <_ZN6parser9eval_exp5ERd+0x38>
     ecc:	b8 01       	movw	r22, r16
     ece:	ce 01       	movw	r24, r28
     ed0:	0e 94 11 05 	call	0xa22	; 0xa22 <_ZN6parser9eval_exp6ERd>
     ed4:	19 c0       	rjmp	.+50     	; 0xf08 <_ZN6parser9eval_exp5ERd+0x5a>
     ed6:	ce 01       	movw	r24, r28
     ed8:	0e 94 f2 03 	call	0x7e4	; 0x7e4 <_ZN6parser9get_tokenEv>
     edc:	b8 01       	movw	r22, r16
     ede:	ce 01       	movw	r24, r28
     ee0:	0e 94 11 05 	call	0xa22	; 0xa22 <_ZN6parser9eval_exp6ERd>
     ee4:	11 c0       	rjmp	.+34     	; 0xf08 <_ZN6parser9eval_exp5ERd+0x5a>
     ee6:	ce 01       	movw	r24, r28
     ee8:	0e 94 f2 03 	call	0x7e4	; 0x7e4 <_ZN6parser9get_tokenEv>
     eec:	b8 01       	movw	r22, r16
     eee:	ce 01       	movw	r24, r28
     ef0:	0e 94 11 05 	call	0xa22	; 0xa22 <_ZN6parser9eval_exp6ERd>
     ef4:	f8 01       	movw	r30, r16
     ef6:	80 81       	ld	r24, Z
     ef8:	91 81       	ldd	r25, Z+1	; 0x01
     efa:	a2 81       	ldd	r26, Z+2	; 0x02
     efc:	b3 81       	ldd	r27, Z+3	; 0x03
     efe:	b0 58       	subi	r27, 0x80	; 128
     f00:	80 83       	st	Z, r24
     f02:	91 83       	std	Z+1, r25	; 0x01
     f04:	a2 83       	std	Z+2, r26	; 0x02
     f06:	b3 83       	std	Z+3, r27	; 0x03
     f08:	df 91       	pop	r29
     f0a:	cf 91       	pop	r28
     f0c:	1f 91       	pop	r17
     f0e:	0f 91       	pop	r16
     f10:	08 95       	ret

00000f12 <_ZN6parser9eval_exp4ERd>:
     f12:	ef 92       	push	r14
     f14:	ff 92       	push	r15
     f16:	0f 93       	push	r16
     f18:	1f 93       	push	r17
     f1a:	cf 93       	push	r28
     f1c:	df 93       	push	r29
     f1e:	00 d0       	rcall	.+0      	; 0xf20 <_ZN6parser9eval_exp4ERd+0xe>
     f20:	00 d0       	rcall	.+0      	; 0xf22 <_ZN6parser9eval_exp4ERd+0x10>
     f22:	cd b7       	in	r28, 0x3d	; 61
     f24:	de b7       	in	r29, 0x3e	; 62
     f26:	8c 01       	movw	r16, r24
     f28:	7b 01       	movw	r14, r22
     f2a:	0e 94 57 07 	call	0xeae	; 0xeae <_ZN6parser9eval_exp5ERd>
     f2e:	f8 01       	movw	r30, r16
     f30:	82 81       	ldd	r24, Z+2	; 0x02
     f32:	8e 35       	cpi	r24, 0x5E	; 94
     f34:	e9 f4       	brne	.+58     	; 0xf70 <_ZN6parser9eval_exp4ERd+0x5e>
     f36:	c8 01       	movw	r24, r16
     f38:	0e 94 f2 03 	call	0x7e4	; 0x7e4 <_ZN6parser9get_tokenEv>
     f3c:	be 01       	movw	r22, r28
     f3e:	6f 5f       	subi	r22, 0xFF	; 255
     f40:	7f 4f       	sbci	r23, 0xFF	; 255
     f42:	c8 01       	movw	r24, r16
     f44:	0e 94 57 07 	call	0xeae	; 0xeae <_ZN6parser9eval_exp5ERd>
     f48:	29 81       	ldd	r18, Y+1	; 0x01
     f4a:	3a 81       	ldd	r19, Y+2	; 0x02
     f4c:	4b 81       	ldd	r20, Y+3	; 0x03
     f4e:	5c 81       	ldd	r21, Y+4	; 0x04
     f50:	f7 01       	movw	r30, r14
     f52:	60 81       	ld	r22, Z
     f54:	71 81       	ldd	r23, Z+1	; 0x01
     f56:	82 81       	ldd	r24, Z+2	; 0x02
     f58:	93 81       	ldd	r25, Z+3	; 0x03
     f5a:	0e 94 1b 1b 	call	0x3636	; 0x3636 <pow>
     f5e:	f7 01       	movw	r30, r14
     f60:	60 83       	st	Z, r22
     f62:	71 83       	std	Z+1, r23	; 0x01
     f64:	82 83       	std	Z+2, r24	; 0x02
     f66:	93 83       	std	Z+3, r25	; 0x03
     f68:	f8 01       	movw	r30, r16
     f6a:	82 81       	ldd	r24, Z+2	; 0x02
     f6c:	8e 35       	cpi	r24, 0x5E	; 94
     f6e:	19 f3       	breq	.-58     	; 0xf36 <_ZN6parser9eval_exp4ERd+0x24>
     f70:	0f 90       	pop	r0
     f72:	0f 90       	pop	r0
     f74:	0f 90       	pop	r0
     f76:	0f 90       	pop	r0
     f78:	df 91       	pop	r29
     f7a:	cf 91       	pop	r28
     f7c:	1f 91       	pop	r17
     f7e:	0f 91       	pop	r16
     f80:	ff 90       	pop	r15
     f82:	ef 90       	pop	r14
     f84:	08 95       	ret

00000f86 <_ZN6parser9eval_exp3ERd>:
     f86:	ef 92       	push	r14
     f88:	ff 92       	push	r15
     f8a:	0f 93       	push	r16
     f8c:	1f 93       	push	r17
     f8e:	cf 93       	push	r28
     f90:	df 93       	push	r29
     f92:	00 d0       	rcall	.+0      	; 0xf94 <_ZN6parser9eval_exp3ERd+0xe>
     f94:	00 d0       	rcall	.+0      	; 0xf96 <_ZN6parser9eval_exp3ERd+0x10>
     f96:	cd b7       	in	r28, 0x3d	; 61
     f98:	de b7       	in	r29, 0x3e	; 62
     f9a:	8c 01       	movw	r16, r24
     f9c:	7b 01       	movw	r14, r22
     f9e:	0e 94 89 07 	call	0xf12	; 0xf12 <_ZN6parser9eval_exp4ERd>
     fa2:	f8 01       	movw	r30, r16
     fa4:	82 81       	ldd	r24, Z+2	; 0x02
     fa6:	8a 32       	cpi	r24, 0x2A	; 42
     fa8:	19 f0       	breq	.+6      	; 0xfb0 <_ZN6parser9eval_exp3ERd+0x2a>
     faa:	8f 32       	cpi	r24, 0x2F	; 47
     fac:	d9 f0       	breq	.+54     	; 0xfe4 <_ZN6parser9eval_exp3ERd+0x5e>
     fae:	34 c0       	rjmp	.+104    	; 0x1018 <_ZN6parser9eval_exp3ERd+0x92>
     fb0:	c8 01       	movw	r24, r16
     fb2:	0e 94 f2 03 	call	0x7e4	; 0x7e4 <_ZN6parser9get_tokenEv>
     fb6:	be 01       	movw	r22, r28
     fb8:	6f 5f       	subi	r22, 0xFF	; 255
     fba:	7f 4f       	sbci	r23, 0xFF	; 255
     fbc:	c8 01       	movw	r24, r16
     fbe:	0e 94 89 07 	call	0xf12	; 0xf12 <_ZN6parser9eval_exp4ERd>
     fc2:	29 81       	ldd	r18, Y+1	; 0x01
     fc4:	3a 81       	ldd	r19, Y+2	; 0x02
     fc6:	4b 81       	ldd	r20, Y+3	; 0x03
     fc8:	5c 81       	ldd	r21, Y+4	; 0x04
     fca:	f7 01       	movw	r30, r14
     fcc:	60 81       	ld	r22, Z
     fce:	71 81       	ldd	r23, Z+1	; 0x01
     fd0:	82 81       	ldd	r24, Z+2	; 0x02
     fd2:	93 81       	ldd	r25, Z+3	; 0x03
     fd4:	0e 94 ae 1a 	call	0x355c	; 0x355c <__mulsf3>
     fd8:	f7 01       	movw	r30, r14
     fda:	60 83       	st	Z, r22
     fdc:	71 83       	std	Z+1, r23	; 0x01
     fde:	82 83       	std	Z+2, r24	; 0x02
     fe0:	93 83       	std	Z+3, r25	; 0x03
     fe2:	df cf       	rjmp	.-66     	; 0xfa2 <_ZN6parser9eval_exp3ERd+0x1c>
     fe4:	c8 01       	movw	r24, r16
     fe6:	0e 94 f2 03 	call	0x7e4	; 0x7e4 <_ZN6parser9get_tokenEv>
     fea:	be 01       	movw	r22, r28
     fec:	6f 5f       	subi	r22, 0xFF	; 255
     fee:	7f 4f       	sbci	r23, 0xFF	; 255
     ff0:	c8 01       	movw	r24, r16
     ff2:	0e 94 89 07 	call	0xf12	; 0xf12 <_ZN6parser9eval_exp4ERd>
     ff6:	29 81       	ldd	r18, Y+1	; 0x01
     ff8:	3a 81       	ldd	r19, Y+2	; 0x02
     ffa:	4b 81       	ldd	r20, Y+3	; 0x03
     ffc:	5c 81       	ldd	r21, Y+4	; 0x04
     ffe:	f7 01       	movw	r30, r14
    1000:	60 81       	ld	r22, Z
    1002:	71 81       	ldd	r23, Z+1	; 0x01
    1004:	82 81       	ldd	r24, Z+2	; 0x02
    1006:	93 81       	ldd	r25, Z+3	; 0x03
    1008:	0e 94 55 17 	call	0x2eaa	; 0x2eaa <__divsf3>
    100c:	f7 01       	movw	r30, r14
    100e:	60 83       	st	Z, r22
    1010:	71 83       	std	Z+1, r23	; 0x01
    1012:	82 83       	std	Z+2, r24	; 0x02
    1014:	93 83       	std	Z+3, r25	; 0x03
    1016:	c5 cf       	rjmp	.-118    	; 0xfa2 <_ZN6parser9eval_exp3ERd+0x1c>
    1018:	0f 90       	pop	r0
    101a:	0f 90       	pop	r0
    101c:	0f 90       	pop	r0
    101e:	0f 90       	pop	r0
    1020:	df 91       	pop	r29
    1022:	cf 91       	pop	r28
    1024:	1f 91       	pop	r17
    1026:	0f 91       	pop	r16
    1028:	ff 90       	pop	r15
    102a:	ef 90       	pop	r14
    102c:	08 95       	ret

0000102e <_ZN6parser9eval_exp1ERd>:
    102e:	8f 92       	push	r8
    1030:	9f 92       	push	r9
    1032:	bf 92       	push	r11
    1034:	cf 92       	push	r12
    1036:	df 92       	push	r13
    1038:	ef 92       	push	r14
    103a:	ff 92       	push	r15
    103c:	0f 93       	push	r16
    103e:	1f 93       	push	r17
    1040:	cf 93       	push	r28
    1042:	df 93       	push	r29
    1044:	cd b7       	in	r28, 0x3d	; 61
    1046:	de b7       	in	r29, 0x3e	; 62
    1048:	6e 97       	sbiw	r28, 0x1e	; 30
    104a:	0f b6       	in	r0, 0x3f	; 63
    104c:	f8 94       	cli
    104e:	de bf       	out	0x3e, r29	; 62
    1050:	0f be       	out	0x3f, r0	; 63
    1052:	cd bf       	out	0x3d, r28	; 61
    1054:	8c 01       	movw	r16, r24
    1056:	7b 01       	movw	r14, r22
    1058:	fc 01       	movw	r30, r24
    105a:	80 a1       	ldd	r24, Z+32	; 0x20
    105c:	82 30       	cpi	r24, 0x02	; 2
    105e:	c9 f5       	brne	.+114    	; 0x10d2 <_ZN6parser9eval_exp1ERd+0xa4>
    1060:	81 90       	ld	r8, Z+
    1062:	91 90       	ld	r9, Z+
    1064:	6f 01       	movw	r12, r30
    1066:	bf 01       	movw	r22, r30
    1068:	ce 01       	movw	r24, r28
    106a:	01 96       	adiw	r24, 0x01	; 1
    106c:	0e 94 e7 1d 	call	0x3bce	; 0x3bce <strcpy>
    1070:	f8 01       	movw	r30, r16
    1072:	b2 80       	ldd	r11, Z+2	; 0x02
    1074:	c8 01       	movw	r24, r16
    1076:	0e 94 f2 03 	call	0x7e4	; 0x7e4 <_ZN6parser9get_tokenEv>
    107a:	f8 01       	movw	r30, r16
    107c:	82 81       	ldd	r24, Z+2	; 0x02
    107e:	8d 33       	cpi	r24, 0x3D	; 61
    1080:	61 f0       	breq	.+24     	; 0x109a <_ZN6parser9eval_exp1ERd+0x6c>
    1082:	91 82       	std	Z+1, r9	; 0x01
    1084:	80 82       	st	Z, r8
    1086:	be 01       	movw	r22, r28
    1088:	6f 5f       	subi	r22, 0xFF	; 255
    108a:	7f 4f       	sbci	r23, 0xFF	; 255
    108c:	c6 01       	movw	r24, r12
    108e:	0e 94 e7 1d 	call	0x3bce	; 0x3bce <strcpy>
    1092:	82 e0       	ldi	r24, 0x02	; 2
    1094:	f8 01       	movw	r30, r16
    1096:	80 a3       	std	Z+32, r24	; 0x20
    1098:	1c c0       	rjmp	.+56     	; 0x10d2 <_ZN6parser9eval_exp1ERd+0xa4>
    109a:	c8 01       	movw	r24, r16
    109c:	0e 94 f2 03 	call	0x7e4	; 0x7e4 <_ZN6parser9get_tokenEv>
    10a0:	b7 01       	movw	r22, r14
    10a2:	c8 01       	movw	r24, r16
    10a4:	0e 94 be 04 	call	0x97c	; 0x97c <_ZN6parser9eval_exp2ERd>
    10a8:	f7 01       	movw	r30, r14
    10aa:	40 81       	ld	r20, Z
    10ac:	51 81       	ldd	r21, Z+1	; 0x01
    10ae:	62 81       	ldd	r22, Z+2	; 0x02
    10b0:	73 81       	ldd	r23, Z+3	; 0x03
    10b2:	8b 2d       	mov	r24, r11
    10b4:	90 e0       	ldi	r25, 0x00	; 0
    10b6:	81 54       	subi	r24, 0x41	; 65
    10b8:	91 09       	sbc	r25, r1
    10ba:	88 0f       	add	r24, r24
    10bc:	99 1f       	adc	r25, r25
    10be:	88 0f       	add	r24, r24
    10c0:	99 1f       	adc	r25, r25
    10c2:	f8 01       	movw	r30, r16
    10c4:	e8 0f       	add	r30, r24
    10c6:	f9 1f       	adc	r31, r25
    10c8:	41 a3       	std	Z+33, r20	; 0x21
    10ca:	52 a3       	std	Z+34, r21	; 0x22
    10cc:	63 a3       	std	Z+35, r22	; 0x23
    10ce:	74 a3       	std	Z+36, r23	; 0x24
    10d0:	04 c0       	rjmp	.+8      	; 0x10da <_ZN6parser9eval_exp1ERd+0xac>
    10d2:	b7 01       	movw	r22, r14
    10d4:	c8 01       	movw	r24, r16
    10d6:	0e 94 be 04 	call	0x97c	; 0x97c <_ZN6parser9eval_exp2ERd>
    10da:	6e 96       	adiw	r28, 0x1e	; 30
    10dc:	0f b6       	in	r0, 0x3f	; 63
    10de:	f8 94       	cli
    10e0:	de bf       	out	0x3e, r29	; 62
    10e2:	0f be       	out	0x3f, r0	; 63
    10e4:	cd bf       	out	0x3d, r28	; 61
    10e6:	df 91       	pop	r29
    10e8:	cf 91       	pop	r28
    10ea:	1f 91       	pop	r17
    10ec:	0f 91       	pop	r16
    10ee:	ff 90       	pop	r15
    10f0:	ef 90       	pop	r14
    10f2:	df 90       	pop	r13
    10f4:	cf 90       	pop	r12
    10f6:	bf 90       	pop	r11
    10f8:	9f 90       	pop	r9
    10fa:	8f 90       	pop	r8
    10fc:	08 95       	ret

000010fe <_ZN6parser8eval_expEPc>:
    10fe:	0f 93       	push	r16
    1100:	1f 93       	push	r17
    1102:	cf 93       	push	r28
    1104:	df 93       	push	r29
    1106:	00 d0       	rcall	.+0      	; 0x1108 <_ZN6parser8eval_expEPc+0xa>
    1108:	00 d0       	rcall	.+0      	; 0x110a <_ZN6parser8eval_expEPc+0xc>
    110a:	cd b7       	in	r28, 0x3d	; 61
    110c:	de b7       	in	r29, 0x3e	; 62
    110e:	8c 01       	movw	r16, r24
    1110:	fc 01       	movw	r30, r24
    1112:	e7 5b       	subi	r30, 0xB7	; 183
    1114:	ff 4f       	sbci	r31, 0xFF	; 255
    1116:	10 82       	st	Z, r1
    1118:	fc 01       	movw	r30, r24
    111a:	71 83       	std	Z+1, r23	; 0x01
    111c:	60 83       	st	Z, r22
    111e:	0e 94 f2 03 	call	0x7e4	; 0x7e4 <_ZN6parser9get_tokenEv>
    1122:	f8 01       	movw	r30, r16
    1124:	82 81       	ldd	r24, Z+2	; 0x02
    1126:	81 11       	cpse	r24, r1
    1128:	0e c0       	rjmp	.+28     	; 0x1146 <_ZN6parser8eval_expEPc+0x48>
    112a:	d8 01       	movw	r26, r16
    112c:	a7 5b       	subi	r26, 0xB7	; 183
    112e:	bf 4f       	sbci	r27, 0xFF	; 255
    1130:	86 e1       	ldi	r24, 0x16	; 22
    1132:	ec eb       	ldi	r30, 0xBC	; 188
    1134:	f1 e0       	ldi	r31, 0x01	; 1
    1136:	01 90       	ld	r0, Z+
    1138:	0d 92       	st	X+, r0
    113a:	8a 95       	dec	r24
    113c:	e1 f7       	brne	.-8      	; 0x1136 <_ZN6parser8eval_expEPc+0x38>
    113e:	60 e0       	ldi	r22, 0x00	; 0
    1140:	70 e0       	ldi	r23, 0x00	; 0
    1142:	cb 01       	movw	r24, r22
    1144:	18 c0       	rjmp	.+48     	; 0x1176 <_ZN6parser8eval_expEPc+0x78>
    1146:	be 01       	movw	r22, r28
    1148:	6f 5f       	subi	r22, 0xFF	; 255
    114a:	7f 4f       	sbci	r23, 0xFF	; 255
    114c:	c8 01       	movw	r24, r16
    114e:	0e 94 17 08 	call	0x102e	; 0x102e <_ZN6parser9eval_exp1ERd>
    1152:	f8 01       	movw	r30, r16
    1154:	82 81       	ldd	r24, Z+2	; 0x02
    1156:	88 23       	and	r24, r24
    1158:	51 f0       	breq	.+20     	; 0x116e <_ZN6parser8eval_expEPc+0x70>
    115a:	d8 01       	movw	r26, r16
    115c:	a7 5b       	subi	r26, 0xB7	; 183
    115e:	bf 4f       	sbci	r27, 0xFF	; 255
    1160:	8d e0       	ldi	r24, 0x0D	; 13
    1162:	ef ea       	ldi	r30, 0xAF	; 175
    1164:	f1 e0       	ldi	r31, 0x01	; 1
    1166:	01 90       	ld	r0, Z+
    1168:	0d 92       	st	X+, r0
    116a:	8a 95       	dec	r24
    116c:	e1 f7       	brne	.-8      	; 0x1166 <_ZN6parser8eval_expEPc+0x68>
    116e:	69 81       	ldd	r22, Y+1	; 0x01
    1170:	7a 81       	ldd	r23, Y+2	; 0x02
    1172:	8b 81       	ldd	r24, Y+3	; 0x03
    1174:	9c 81       	ldd	r25, Y+4	; 0x04
    1176:	0f 90       	pop	r0
    1178:	0f 90       	pop	r0
    117a:	0f 90       	pop	r0
    117c:	0f 90       	pop	r0
    117e:	df 91       	pop	r29
    1180:	cf 91       	pop	r28
    1182:	1f 91       	pop	r17
    1184:	0f 91       	pop	r16
    1186:	08 95       	ret

00001188 <_Z10gauss_algoiiPdPS_>:
    1188:	2f 92       	push	r2
    118a:	3f 92       	push	r3
    118c:	4f 92       	push	r4
    118e:	5f 92       	push	r5
    1190:	6f 92       	push	r6
    1192:	7f 92       	push	r7
    1194:	8f 92       	push	r8
    1196:	9f 92       	push	r9
    1198:	af 92       	push	r10
    119a:	bf 92       	push	r11
    119c:	cf 92       	push	r12
    119e:	df 92       	push	r13
    11a0:	ef 92       	push	r14
    11a2:	ff 92       	push	r15
    11a4:	0f 93       	push	r16
    11a6:	1f 93       	push	r17
    11a8:	cf 93       	push	r28
    11aa:	df 93       	push	r29
    11ac:	cd b7       	in	r28, 0x3d	; 61
    11ae:	de b7       	in	r29, 0x3e	; 62
    11b0:	64 97       	sbiw	r28, 0x14	; 20
    11b2:	0f b6       	in	r0, 0x3f	; 63
    11b4:	f8 94       	cli
    11b6:	de bf       	out	0x3e, r29	; 62
    11b8:	0f be       	out	0x3f, r0	; 63
    11ba:	cd bf       	out	0x3d, r28	; 61
    11bc:	9a 87       	std	Y+10, r25	; 0x0a
    11be:	89 87       	std	Y+9, r24	; 0x09
    11c0:	1b 01       	movw	r2, r22
    11c2:	58 8b       	std	Y+16, r21	; 0x10
    11c4:	4f 87       	std	Y+15, r20	; 0x0f
    11c6:	29 01       	movw	r4, r18
    11c8:	9b 01       	movw	r18, r22
    11ca:	22 0f       	add	r18, r18
    11cc:	33 1f       	adc	r19, r19
    11ce:	3a 83       	std	Y+2, r19	; 0x02
    11d0:	29 83       	std	Y+1, r18	; 0x01
    11d2:	c9 01       	movw	r24, r18
    11d4:	0e 94 87 1c 	call	0x390e	; 0x390e <malloc>
    11d8:	9a 8b       	std	Y+18, r25	; 0x12
    11da:	89 8b       	std	Y+17, r24	; 0x11
    11dc:	12 14       	cp	r1, r2
    11de:	13 04       	cpc	r1, r3
    11e0:	0c f0       	brlt	.+2      	; 0x11e4 <_Z10gauss_algoiiPdPS_+0x5c>
    11e2:	56 c1       	rjmp	.+684    	; 0x1490 <_Z10gauss_algoiiPdPS_+0x308>
    11e4:	9e 87       	std	Y+14, r25	; 0x0e
    11e6:	8d 87       	std	Y+13, r24	; 0x0d
    11e8:	69 81       	ldd	r22, Y+1	; 0x01
    11ea:	7a 81       	ldd	r23, Y+2	; 0x02
    11ec:	68 0f       	add	r22, r24
    11ee:	79 1f       	adc	r23, r25
    11f0:	fc 01       	movw	r30, r24
    11f2:	8f ef       	ldi	r24, 0xFF	; 255
    11f4:	9f ef       	ldi	r25, 0xFF	; 255
    11f6:	7a 83       	std	Y+2, r23	; 0x02
    11f8:	69 83       	std	Y+1, r22	; 0x01
    11fa:	81 93       	st	Z+, r24
    11fc:	91 93       	st	Z+, r25
    11fe:	a9 81       	ldd	r26, Y+1	; 0x01
    1200:	ba 81       	ldd	r27, Y+2	; 0x02
    1202:	ae 17       	cp	r26, r30
    1204:	bf 07       	cpc	r27, r31
    1206:	c9 f7       	brne	.-14     	; 0x11fa <_Z10gauss_algoiiPdPS_+0x72>
    1208:	2e c2       	rjmp	.+1116   	; 0x1666 <_Z10gauss_algoiiPdPS_+0x4de>
    120a:	b4 e0       	ldi	r27, 0x04	; 4
    120c:	6b 0e       	add	r6, r27
    120e:	71 1c       	adc	r7, r1
    1210:	ed 85       	ldd	r30, Y+13	; 0x0d
    1212:	fe 85       	ldd	r31, Y+14	; 0x0e
    1214:	32 96       	adiw	r30, 0x02	; 2
    1216:	fe 87       	std	Y+14, r31	; 0x0e
    1218:	ed 87       	std	Y+13, r30	; 0x0d
    121a:	29 85       	ldd	r18, Y+9	; 0x09
    121c:	3a 85       	ldd	r19, Y+10	; 0x0a
    121e:	a2 16       	cp	r10, r18
    1220:	b3 06       	cpc	r11, r19
    1222:	0c f0       	brlt	.+2      	; 0x1226 <_Z10gauss_algoiiPdPS_+0x9e>
    1224:	26 c2       	rjmp	.+1100   	; 0x1672 <_Z10gauss_algoiiPdPS_+0x4ea>
    1226:	bc 86       	std	Y+12, r11	; 0x0c
    1228:	ab 86       	std	Y+11, r10	; 0x0b
    122a:	c5 01       	movw	r24, r10
    122c:	0a c0       	rjmp	.+20     	; 0x1242 <_Z10gauss_algoiiPdPS_+0xba>
    122e:	61 2c       	mov	r6, r1
    1230:	71 2c       	mov	r7, r1
    1232:	1c 86       	std	Y+12, r1	; 0x0c
    1234:	1b 86       	std	Y+11, r1	; 0x0b
    1236:	18 86       	std	Y+8, r1	; 0x08
    1238:	1f 82       	std	Y+7, r1	; 0x07
    123a:	80 e0       	ldi	r24, 0x00	; 0
    123c:	90 e0       	ldi	r25, 0x00	; 0
    123e:	a1 2c       	mov	r10, r1
    1240:	b1 2c       	mov	r11, r1
    1242:	69 85       	ldd	r22, Y+9	; 0x09
    1244:	7a 85       	ldd	r23, Y+10	; 0x0a
    1246:	86 17       	cp	r24, r22
    1248:	97 07       	cpc	r25, r23
    124a:	0c f0       	brlt	.+2      	; 0x124e <_Z10gauss_algoiiPdPS_+0xc6>
    124c:	41 c0       	rjmp	.+130    	; 0x12d0 <_Z10gauss_algoiiPdPS_+0x148>
    124e:	75 01       	movw	r14, r10
    1250:	ee 0c       	add	r14, r14
    1252:	ff 1c       	adc	r15, r15
    1254:	e4 0c       	add	r14, r4
    1256:	f5 1c       	adc	r15, r5
    1258:	ba 82       	std	Y+2, r11	; 0x02
    125a:	a9 82       	std	Y+1, r10	; 0x01
    125c:	65 01       	movw	r12, r10
    125e:	4b 01       	movw	r8, r22
    1260:	d7 01       	movw	r26, r14
    1262:	ed 91       	ld	r30, X+
    1264:	fd 91       	ld	r31, X+
    1266:	7d 01       	movw	r14, r26
    1268:	e6 0d       	add	r30, r6
    126a:	f7 1d       	adc	r31, r7
    126c:	60 81       	ld	r22, Z
    126e:	71 81       	ldd	r23, Z+1	; 0x01
    1270:	82 81       	ldd	r24, Z+2	; 0x02
    1272:	93 81       	ldd	r25, Z+3	; 0x03
    1274:	0e 94 01 18 	call	0x3002	; 0x3002 <__fixsfsi>
    1278:	8b 01       	movw	r16, r22
    127a:	77 23       	and	r23, r23
    127c:	24 f4       	brge	.+8      	; 0x1286 <_Z10gauss_algoiiPdPS_+0xfe>
    127e:	00 27       	eor	r16, r16
    1280:	11 27       	eor	r17, r17
    1282:	06 1b       	sub	r16, r22
    1284:	17 0b       	sbc	r17, r23
    1286:	f6 01       	movw	r30, r12
    1288:	ee 0f       	add	r30, r30
    128a:	ff 1f       	adc	r31, r31
    128c:	e4 0d       	add	r30, r4
    128e:	f5 1d       	adc	r31, r5
    1290:	01 90       	ld	r0, Z+
    1292:	f0 81       	ld	r31, Z
    1294:	e0 2d       	mov	r30, r0
    1296:	e6 0d       	add	r30, r6
    1298:	f7 1d       	adc	r31, r7
    129a:	60 81       	ld	r22, Z
    129c:	71 81       	ldd	r23, Z+1	; 0x01
    129e:	82 81       	ldd	r24, Z+2	; 0x02
    12a0:	93 81       	ldd	r25, Z+3	; 0x03
    12a2:	0e 94 01 18 	call	0x3002	; 0x3002 <__fixsfsi>
    12a6:	9b 01       	movw	r18, r22
    12a8:	77 23       	and	r23, r23
    12aa:	24 f4       	brge	.+8      	; 0x12b4 <_Z10gauss_algoiiPdPS_+0x12c>
    12ac:	22 27       	eor	r18, r18
    12ae:	33 27       	eor	r19, r19
    12b0:	26 1b       	sub	r18, r22
    12b2:	37 0b       	sbc	r19, r23
    12b4:	20 17       	cp	r18, r16
    12b6:	31 07       	cpc	r19, r17
    12b8:	14 f4       	brge	.+4      	; 0x12be <_Z10gauss_algoiiPdPS_+0x136>
    12ba:	c9 80       	ldd	r12, Y+1	; 0x01
    12bc:	da 80       	ldd	r13, Y+2	; 0x02
    12be:	e9 81       	ldd	r30, Y+1	; 0x01
    12c0:	fa 81       	ldd	r31, Y+2	; 0x02
    12c2:	31 96       	adiw	r30, 0x01	; 1
    12c4:	fa 83       	std	Y+2, r31	; 0x02
    12c6:	e9 83       	std	Y+1, r30	; 0x01
    12c8:	e8 15       	cp	r30, r8
    12ca:	f9 05       	cpc	r31, r9
    12cc:	4c f2       	brlt	.-110    	; 0x1260 <_Z10gauss_algoiiPdPS_+0xd8>
    12ce:	01 c0       	rjmp	.+2      	; 0x12d2 <_Z10gauss_algoiiPdPS_+0x14a>
    12d0:	65 01       	movw	r12, r10
    12d2:	cc 0c       	add	r12, r12
    12d4:	dd 1c       	adc	r13, r13
    12d6:	92 01       	movw	r18, r4
    12d8:	2c 0d       	add	r18, r12
    12da:	3d 1d       	adc	r19, r13
    12dc:	3a 83       	std	Y+2, r19	; 0x02
    12de:	29 83       	std	Y+1, r18	; 0x01
    12e0:	d9 01       	movw	r26, r18
    12e2:	ed 91       	ld	r30, X+
    12e4:	fc 91       	ld	r31, X
    12e6:	e6 0d       	add	r30, r6
    12e8:	f7 1d       	adc	r31, r7
    12ea:	60 81       	ld	r22, Z
    12ec:	71 81       	ldd	r23, Z+1	; 0x01
    12ee:	82 81       	ldd	r24, Z+2	; 0x02
    12f0:	93 81       	ldd	r25, Z+3	; 0x03
    12f2:	0e 94 01 18 	call	0x3002	; 0x3002 <__fixsfsi>
    12f6:	9b 01       	movw	r18, r22
    12f8:	77 23       	and	r23, r23
    12fa:	24 f4       	brge	.+8      	; 0x1304 <_Z10gauss_algoiiPdPS_+0x17c>
    12fc:	22 27       	eor	r18, r18
    12fe:	33 27       	eor	r19, r19
    1300:	26 1b       	sub	r18, r22
    1302:	37 0b       	sbc	r19, r23
    1304:	b9 01       	movw	r22, r18
    1306:	33 0f       	add	r19, r19
    1308:	88 0b       	sbc	r24, r24
    130a:	99 0b       	sbc	r25, r25
    130c:	0e 94 39 18 	call	0x3072	; 0x3072 <__floatsisf>
    1310:	25 e9       	ldi	r18, 0x95	; 149
    1312:	3f eb       	ldi	r19, 0xBF	; 191
    1314:	46 ed       	ldi	r20, 0xD6	; 214
    1316:	53 e3       	ldi	r21, 0x33	; 51
    1318:	0e 94 34 17 	call	0x2e68	; 0x2e68 <__cmpsf2>
    131c:	88 23       	and	r24, r24
    131e:	0c f4       	brge	.+2      	; 0x1322 <_Z10gauss_algoiiPdPS_+0x19a>
    1320:	a4 c0       	rjmp	.+328    	; 0x146a <_Z10gauss_algoiiPdPS_+0x2e2>
    1322:	ef 81       	ldd	r30, Y+7	; 0x07
    1324:	f8 85       	ldd	r31, Y+8	; 0x08
    1326:	2e 16       	cp	r2, r30
    1328:	3f 06       	cpc	r3, r31
    132a:	0c f4       	brge	.+2      	; 0x132e <_Z10gauss_algoiiPdPS_+0x1a6>
    132c:	a8 c1       	rjmp	.+848    	; 0x167e <_Z10gauss_algoiiPdPS_+0x4f6>
    132e:	4b 85       	ldd	r20, Y+11	; 0x0b
    1330:	5c 85       	ldd	r21, Y+12	; 0x0c
    1332:	44 0f       	add	r20, r20
    1334:	55 1f       	adc	r21, r21
    1336:	44 0d       	add	r20, r4
    1338:	55 1d       	adc	r21, r5
    133a:	c3 01       	movw	r24, r6
    133c:	9f 01       	movw	r18, r30
    133e:	09 81       	ldd	r16, Y+1	; 0x01
    1340:	1a 81       	ldd	r17, Y+2	; 0x02
    1342:	d8 01       	movw	r26, r16
    1344:	ed 91       	ld	r30, X+
    1346:	fc 91       	ld	r31, X
    1348:	e8 0f       	add	r30, r24
    134a:	f9 1f       	adc	r31, r25
    134c:	c0 80       	ld	r12, Z
    134e:	d1 80       	ldd	r13, Z+1	; 0x01
    1350:	e2 80       	ldd	r14, Z+2	; 0x02
    1352:	f3 80       	ldd	r15, Z+3	; 0x03
    1354:	da 01       	movw	r26, r20
    1356:	6d 91       	ld	r22, X+
    1358:	7c 91       	ld	r23, X
    135a:	db 01       	movw	r26, r22
    135c:	a8 0f       	add	r26, r24
    135e:	b9 1f       	adc	r27, r25
    1360:	8d 90       	ld	r8, X+
    1362:	9d 90       	ld	r9, X+
    1364:	ad 90       	ld	r10, X+
    1366:	bc 90       	ld	r11, X
    1368:	80 82       	st	Z, r8
    136a:	91 82       	std	Z+1, r9	; 0x01
    136c:	a2 82       	std	Z+2, r10	; 0x02
    136e:	b3 82       	std	Z+3, r11	; 0x03
    1370:	da 01       	movw	r26, r20
    1372:	ed 91       	ld	r30, X+
    1374:	fc 91       	ld	r31, X
    1376:	e8 0f       	add	r30, r24
    1378:	f9 1f       	adc	r31, r25
    137a:	c0 82       	st	Z, r12
    137c:	d1 82       	std	Z+1, r13	; 0x01
    137e:	e2 82       	std	Z+2, r14	; 0x02
    1380:	f3 82       	std	Z+3, r15	; 0x03
    1382:	2f 5f       	subi	r18, 0xFF	; 255
    1384:	3f 4f       	sbci	r19, 0xFF	; 255
    1386:	04 96       	adiw	r24, 0x04	; 4
    1388:	22 16       	cp	r2, r18
    138a:	33 06       	cpc	r3, r19
    138c:	d4 f6       	brge	.-76     	; 0x1342 <_Z10gauss_algoiiPdPS_+0x1ba>
    138e:	77 c1       	rjmp	.+750    	; 0x167e <_Z10gauss_algoiiPdPS_+0x4f6>
    1390:	eb 85       	ldd	r30, Y+11	; 0x0b
    1392:	fc 85       	ldd	r31, Y+12	; 0x0c
    1394:	ea 15       	cp	r30, r10
    1396:	fb 05       	cpc	r31, r11
    1398:	09 f4       	brne	.+2      	; 0x139c <_Z10gauss_algoiiPdPS_+0x214>
    139a:	53 c0       	rjmp	.+166    	; 0x1442 <_Z10gauss_algoiiPdPS_+0x2ba>
    139c:	cd 80       	ldd	r12, Y+5	; 0x05
    139e:	de 80       	ldd	r13, Y+6	; 0x06
    13a0:	d6 01       	movw	r26, r12
    13a2:	ed 91       	ld	r30, X+
    13a4:	fc 91       	ld	r31, X
    13a6:	cf 01       	movw	r24, r30
    13a8:	86 0d       	add	r24, r6
    13aa:	97 1d       	adc	r25, r7
    13ac:	f4 01       	movw	r30, r8
    13ae:	a0 81       	ld	r26, Z
    13b0:	b1 81       	ldd	r27, Z+1	; 0x01
    13b2:	a6 0d       	add	r26, r6
    13b4:	b7 1d       	adc	r27, r7
    13b6:	2d 91       	ld	r18, X+
    13b8:	3d 91       	ld	r19, X+
    13ba:	4d 91       	ld	r20, X+
    13bc:	5c 91       	ld	r21, X
    13be:	dc 01       	movw	r26, r24
    13c0:	6d 91       	ld	r22, X+
    13c2:	7d 91       	ld	r23, X+
    13c4:	8d 91       	ld	r24, X+
    13c6:	9c 91       	ld	r25, X
    13c8:	0e 94 55 17 	call	0x2eaa	; 0x2eaa <__divsf3>
    13cc:	69 83       	std	Y+1, r22	; 0x01
    13ce:	7a 83       	std	Y+2, r23	; 0x02
    13d0:	8b 83       	std	Y+3, r24	; 0x03
    13d2:	9c 83       	std	Y+4, r25	; 0x04
    13d4:	ef 81       	ldd	r30, Y+7	; 0x07
    13d6:	f8 85       	ldd	r31, Y+8	; 0x08
    13d8:	2e 16       	cp	r2, r30
    13da:	3f 06       	cpc	r3, r31
    13dc:	94 f1       	brlt	.+100    	; 0x1442 <_Z10gauss_algoiiPdPS_+0x2ba>
    13de:	83 01       	movw	r16, r6
    13e0:	7f 01       	movw	r14, r30
    13e2:	d6 01       	movw	r26, r12
    13e4:	0d 90       	ld	r0, X+
    13e6:	bc 91       	ld	r27, X
    13e8:	a0 2d       	mov	r26, r0
    13ea:	a0 0f       	add	r26, r16
    13ec:	b1 1f       	adc	r27, r17
    13ee:	bc 8b       	std	Y+20, r27	; 0x14
    13f0:	ab 8b       	std	Y+19, r26	; 0x13
    13f2:	d4 01       	movw	r26, r8
    13f4:	ed 91       	ld	r30, X+
    13f6:	fc 91       	ld	r31, X
    13f8:	e0 0f       	add	r30, r16
    13fa:	f1 1f       	adc	r31, r17
    13fc:	20 81       	ld	r18, Z
    13fe:	31 81       	ldd	r19, Z+1	; 0x01
    1400:	42 81       	ldd	r20, Z+2	; 0x02
    1402:	53 81       	ldd	r21, Z+3	; 0x03
    1404:	69 81       	ldd	r22, Y+1	; 0x01
    1406:	7a 81       	ldd	r23, Y+2	; 0x02
    1408:	8b 81       	ldd	r24, Y+3	; 0x03
    140a:	9c 81       	ldd	r25, Y+4	; 0x04
    140c:	0e 94 ae 1a 	call	0x355c	; 0x355c <__mulsf3>
    1410:	9b 01       	movw	r18, r22
    1412:	ac 01       	movw	r20, r24
    1414:	eb 89       	ldd	r30, Y+19	; 0x13
    1416:	fc 89       	ldd	r31, Y+20	; 0x14
    1418:	60 81       	ld	r22, Z
    141a:	71 81       	ldd	r23, Z+1	; 0x01
    141c:	82 81       	ldd	r24, Z+2	; 0x02
    141e:	93 81       	ldd	r25, Z+3	; 0x03
    1420:	0e 94 7d 16 	call	0x2cfa	; 0x2cfa <__subsf3>
    1424:	ab 89       	ldd	r26, Y+19	; 0x13
    1426:	bc 89       	ldd	r27, Y+20	; 0x14
    1428:	6d 93       	st	X+, r22
    142a:	7d 93       	st	X+, r23
    142c:	8d 93       	st	X+, r24
    142e:	9c 93       	st	X, r25
    1430:	13 97       	sbiw	r26, 0x03	; 3
    1432:	bf ef       	ldi	r27, 0xFF	; 255
    1434:	eb 1a       	sub	r14, r27
    1436:	fb 0a       	sbc	r15, r27
    1438:	0c 5f       	subi	r16, 0xFC	; 252
    143a:	1f 4f       	sbci	r17, 0xFF	; 255
    143c:	2e 14       	cp	r2, r14
    143e:	3f 04       	cpc	r3, r15
    1440:	84 f6       	brge	.-96     	; 0x13e2 <_Z10gauss_algoiiPdPS_+0x25a>
    1442:	ef ef       	ldi	r30, 0xFF	; 255
    1444:	ae 1a       	sub	r10, r30
    1446:	be 0a       	sbc	r11, r30
    1448:	2d 81       	ldd	r18, Y+5	; 0x05
    144a:	3e 81       	ldd	r19, Y+6	; 0x06
    144c:	2e 5f       	subi	r18, 0xFE	; 254
    144e:	3f 4f       	sbci	r19, 0xFF	; 255
    1450:	3e 83       	std	Y+6, r19	; 0x06
    1452:	2d 83       	std	Y+5, r18	; 0x05
    1454:	69 85       	ldd	r22, Y+9	; 0x09
    1456:	7a 85       	ldd	r23, Y+10	; 0x0a
    1458:	6a 15       	cp	r22, r10
    145a:	7b 05       	cpc	r23, r11
    145c:	09 f0       	breq	.+2      	; 0x1460 <_Z10gauss_algoiiPdPS_+0x2d8>
    145e:	98 cf       	rjmp	.-208    	; 0x1390 <_Z10gauss_algoiiPdPS_+0x208>
    1460:	ab 84       	ldd	r10, Y+11	; 0x0b
    1462:	bc 84       	ldd	r11, Y+12	; 0x0c
    1464:	7f ef       	ldi	r23, 0xFF	; 255
    1466:	a7 1a       	sub	r10, r23
    1468:	b7 0a       	sbc	r11, r23
    146a:	8f 81       	ldd	r24, Y+7	; 0x07
    146c:	98 85       	ldd	r25, Y+8	; 0x08
    146e:	01 96       	adiw	r24, 0x01	; 1
    1470:	98 87       	std	Y+8, r25	; 0x08
    1472:	8f 83       	std	Y+7, r24	; 0x07
    1474:	28 16       	cp	r2, r24
    1476:	39 06       	cpc	r3, r25
    1478:	09 f0       	breq	.+2      	; 0x147c <_Z10gauss_algoiiPdPS_+0x2f4>
    147a:	c7 ce       	rjmp	.-626    	; 0x120a <_Z10gauss_algoiiPdPS_+0x82>
    147c:	fa c0       	rjmp	.+500    	; 0x1672 <_Z10gauss_algoiiPdPS_+0x4ea>
    147e:	11 92       	st	Z+, r1
    1480:	11 92       	st	Z+, r1
    1482:	11 92       	st	Z+, r1
    1484:	11 92       	st	Z+, r1
    1486:	01 96       	adiw	r24, 0x01	; 1
    1488:	82 15       	cp	r24, r2
    148a:	93 05       	cpc	r25, r3
    148c:	c4 f3       	brlt	.-16     	; 0x147e <_Z10gauss_algoiiPdPS_+0x2f6>
    148e:	07 c0       	rjmp	.+14     	; 0x149e <_Z10gauss_algoiiPdPS_+0x316>
    1490:	a9 85       	ldd	r26, Y+9	; 0x09
    1492:	ba 85       	ldd	r27, Y+10	; 0x0a
    1494:	1a 16       	cp	r1, r26
    1496:	1b 06       	cpc	r1, r27
    1498:	0c f4       	brge	.+2      	; 0x149c <_Z10gauss_algoiiPdPS_+0x314>
    149a:	43 c0       	rjmp	.+134    	; 0x1522 <_Z10gauss_algoiiPdPS_+0x39a>
    149c:	da c0       	rjmp	.+436    	; 0x1652 <_Z10gauss_algoiiPdPS_+0x4ca>
    149e:	61 01       	movw	r12, r2
    14a0:	cc 0c       	add	r12, r12
    14a2:	dd 1c       	adc	r13, r13
    14a4:	cc 0c       	add	r12, r12
    14a6:	dd 1c       	adc	r13, r13
    14a8:	a9 88       	ldd	r10, Y+17	; 0x11
    14aa:	ba 88       	ldd	r11, Y+18	; 0x12
    14ac:	ef 85       	ldd	r30, Y+15	; 0x0f
    14ae:	f8 89       	ldd	r31, Y+16	; 0x10
    14b0:	00 e0       	ldi	r16, 0x00	; 0
    14b2:	10 e0       	ldi	r17, 0x00	; 0
    14b4:	fa 83       	std	Y+2, r31	; 0x02
    14b6:	e9 83       	std	Y+1, r30	; 0x01
    14b8:	d5 01       	movw	r26, r10
    14ba:	8d 91       	ld	r24, X+
    14bc:	9d 91       	ld	r25, X+
    14be:	5d 01       	movw	r10, r26
    14c0:	8f 3f       	cpi	r24, 0xFF	; 255
    14c2:	bf ef       	ldi	r27, 0xFF	; 255
    14c4:	9b 07       	cpc	r25, r27
    14c6:	09 f1       	breq	.+66     	; 0x150a <_Z10gauss_algoiiPdPS_+0x382>
    14c8:	88 0f       	add	r24, r24
    14ca:	99 1f       	adc	r25, r25
    14cc:	f2 01       	movw	r30, r4
    14ce:	e8 0f       	add	r30, r24
    14d0:	f9 1f       	adc	r31, r25
    14d2:	01 90       	ld	r0, Z+
    14d4:	f0 81       	ld	r31, Z
    14d6:	e0 2d       	mov	r30, r0
    14d8:	df 01       	movw	r26, r30
    14da:	ac 0d       	add	r26, r12
    14dc:	bd 1d       	adc	r27, r13
    14de:	89 81       	ldd	r24, Y+1	; 0x01
    14e0:	9a 81       	ldd	r25, Y+2	; 0x02
    14e2:	8e 19       	sub	r24, r14
    14e4:	9f 09       	sbc	r25, r15
    14e6:	e8 0f       	add	r30, r24
    14e8:	f9 1f       	adc	r31, r25
    14ea:	20 81       	ld	r18, Z
    14ec:	31 81       	ldd	r19, Z+1	; 0x01
    14ee:	42 81       	ldd	r20, Z+2	; 0x02
    14f0:	53 81       	ldd	r21, Z+3	; 0x03
    14f2:	6d 91       	ld	r22, X+
    14f4:	7d 91       	ld	r23, X+
    14f6:	8d 91       	ld	r24, X+
    14f8:	9c 91       	ld	r25, X
    14fa:	0e 94 55 17 	call	0x2eaa	; 0x2eaa <__divsf3>
    14fe:	e9 81       	ldd	r30, Y+1	; 0x01
    1500:	fa 81       	ldd	r31, Y+2	; 0x02
    1502:	60 83       	st	Z, r22
    1504:	71 83       	std	Z+1, r23	; 0x01
    1506:	82 83       	std	Z+2, r24	; 0x02
    1508:	93 83       	std	Z+3, r25	; 0x03
    150a:	0f 5f       	subi	r16, 0xFF	; 255
    150c:	1f 4f       	sbci	r17, 0xFF	; 255
    150e:	29 81       	ldd	r18, Y+1	; 0x01
    1510:	3a 81       	ldd	r19, Y+2	; 0x02
    1512:	2c 5f       	subi	r18, 0xFC	; 252
    1514:	3f 4f       	sbci	r19, 0xFF	; 255
    1516:	3a 83       	std	Y+2, r19	; 0x02
    1518:	29 83       	std	Y+1, r18	; 0x01
    151a:	02 15       	cp	r16, r2
    151c:	13 05       	cpc	r17, r3
    151e:	64 f2       	brlt	.-104    	; 0x14b8 <_Z10gauss_algoiiPdPS_+0x330>
    1520:	bf c0       	rjmp	.+382    	; 0x16a0 <_Z10gauss_algoiiPdPS_+0x518>
    1522:	b1 01       	movw	r22, r2
    1524:	66 0f       	add	r22, r22
    1526:	77 1f       	adc	r23, r23
    1528:	66 0f       	add	r22, r22
    152a:	77 1f       	adc	r23, r23
    152c:	7a 83       	std	Y+2, r23	; 0x02
    152e:	69 83       	std	Y+1, r22	; 0x01
    1530:	42 01       	movw	r8, r4
    1532:	af 84       	ldd	r10, Y+15	; 0x0f
    1534:	b8 88       	ldd	r11, Y+16	; 0x10
    1536:	a6 0e       	add	r10, r22
    1538:	b7 1e       	adc	r11, r23
    153a:	61 2c       	mov	r6, r1
    153c:	71 2c       	mov	r7, r1
    153e:	41 2c       	mov	r4, r1
    1540:	51 2c       	mov	r5, r1
    1542:	12 14       	cp	r1, r2
    1544:	13 04       	cpc	r1, r3
    1546:	34 f0       	brlt	.+12     	; 0x1554 <_Z10gauss_algoiiPdPS_+0x3cc>
    1548:	31 c0       	rjmp	.+98     	; 0x15ac <_Z10gauss_algoiiPdPS_+0x424>
    154a:	12 14       	cp	r1, r2
    154c:	13 04       	cpc	r1, r3
    154e:	0c f4       	brge	.+2      	; 0x1552 <_Z10gauss_algoiiPdPS_+0x3ca>
    1550:	64 c0       	rjmp	.+200    	; 0x161a <_Z10gauss_algoiiPdPS_+0x492>
    1552:	7f c0       	rjmp	.+254    	; 0x1652 <_Z10gauss_algoiiPdPS_+0x4ca>
    1554:	0f 85       	ldd	r16, Y+15	; 0x0f
    1556:	18 89       	ldd	r17, Y+16	; 0x10
    1558:	d4 01       	movw	r26, r8
    155a:	0d 90       	ld	r0, X+
    155c:	bc 91       	ld	r27, X
    155e:	a0 2d       	mov	r26, r0
    1560:	e1 2c       	mov	r14, r1
    1562:	f1 2c       	mov	r15, r1
    1564:	c4 2c       	mov	r12, r4
    1566:	d5 2c       	mov	r13, r5
    1568:	be 83       	std	Y+6, r27	; 0x06
    156a:	ad 83       	std	Y+5, r26	; 0x05
    156c:	f8 01       	movw	r30, r16
    156e:	61 91       	ld	r22, Z+
    1570:	71 91       	ld	r23, Z+
    1572:	81 91       	ld	r24, Z+
    1574:	91 91       	ld	r25, Z+
    1576:	8f 01       	movw	r16, r30
    1578:	ad 81       	ldd	r26, Y+5	; 0x05
    157a:	be 81       	ldd	r27, Y+6	; 0x06
    157c:	2d 91       	ld	r18, X+
    157e:	3d 91       	ld	r19, X+
    1580:	4d 91       	ld	r20, X+
    1582:	5d 91       	ld	r21, X+
    1584:	be 83       	std	Y+6, r27	; 0x06
    1586:	ad 83       	std	Y+5, r26	; 0x05
    1588:	0e 94 ae 1a 	call	0x355c	; 0x355c <__mulsf3>
    158c:	9b 01       	movw	r18, r22
    158e:	ac 01       	movw	r20, r24
    1590:	6e 2d       	mov	r22, r14
    1592:	7f 2d       	mov	r23, r15
    1594:	8c 2d       	mov	r24, r12
    1596:	9d 2d       	mov	r25, r13
    1598:	0e 94 7e 16 	call	0x2cfc	; 0x2cfc <__addsf3>
    159c:	e6 2e       	mov	r14, r22
    159e:	f7 2e       	mov	r15, r23
    15a0:	c8 2e       	mov	r12, r24
    15a2:	d9 2e       	mov	r13, r25
    15a4:	a0 16       	cp	r10, r16
    15a6:	b1 06       	cpc	r11, r17
    15a8:	09 f7       	brne	.-62     	; 0x156c <_Z10gauss_algoiiPdPS_+0x3e4>
    15aa:	04 c0       	rjmp	.+8      	; 0x15b4 <_Z10gauss_algoiiPdPS_+0x42c>
    15ac:	e1 2c       	mov	r14, r1
    15ae:	f1 2c       	mov	r15, r1
    15b0:	c4 2c       	mov	r12, r4
    15b2:	d5 2c       	mov	r13, r5
    15b4:	d4 01       	movw	r26, r8
    15b6:	ed 91       	ld	r30, X+
    15b8:	fd 91       	ld	r31, X+
    15ba:	4d 01       	movw	r8, r26
    15bc:	29 81       	ldd	r18, Y+1	; 0x01
    15be:	3a 81       	ldd	r19, Y+2	; 0x02
    15c0:	e2 0f       	add	r30, r18
    15c2:	f3 1f       	adc	r31, r19
    15c4:	20 81       	ld	r18, Z
    15c6:	31 81       	ldd	r19, Z+1	; 0x01
    15c8:	42 81       	ldd	r20, Z+2	; 0x02
    15ca:	53 81       	ldd	r21, Z+3	; 0x03
    15cc:	6e 2d       	mov	r22, r14
    15ce:	7f 2d       	mov	r23, r15
    15d0:	8c 2d       	mov	r24, r12
    15d2:	9d 2d       	mov	r25, r13
    15d4:	0e 94 7d 16 	call	0x2cfa	; 0x2cfa <__subsf3>
    15d8:	0e 94 01 18 	call	0x3002	; 0x3002 <__fixsfsi>
    15dc:	9b 01       	movw	r18, r22
    15de:	77 23       	and	r23, r23
    15e0:	24 f4       	brge	.+8      	; 0x15ea <_Z10gauss_algoiiPdPS_+0x462>
    15e2:	22 27       	eor	r18, r18
    15e4:	33 27       	eor	r19, r19
    15e6:	26 1b       	sub	r18, r22
    15e8:	37 0b       	sbc	r19, r23
    15ea:	b9 01       	movw	r22, r18
    15ec:	33 0f       	add	r19, r19
    15ee:	88 0b       	sbc	r24, r24
    15f0:	99 0b       	sbc	r25, r25
    15f2:	0e 94 39 18 	call	0x3072	; 0x3072 <__floatsisf>
    15f6:	25 e9       	ldi	r18, 0x95	; 149
    15f8:	3f eb       	ldi	r19, 0xBF	; 191
    15fa:	46 ed       	ldi	r20, 0xD6	; 214
    15fc:	53 e3       	ldi	r21, 0x33	; 51
    15fe:	0e 94 db 19 	call	0x33b6	; 0x33b6 <__gesf2>
    1602:	18 16       	cp	r1, r24
    1604:	6c f1       	brlt	.+90     	; 0x1660 <_Z10gauss_algoiiPdPS_+0x4d8>
    1606:	3f ef       	ldi	r19, 0xFF	; 255
    1608:	63 1a       	sub	r6, r19
    160a:	73 0a       	sbc	r7, r19
    160c:	69 85       	ldd	r22, Y+9	; 0x09
    160e:	7a 85       	ldd	r23, Y+10	; 0x0a
    1610:	66 16       	cp	r6, r22
    1612:	77 06       	cpc	r7, r23
    1614:	0c f4       	brge	.+2      	; 0x1618 <_Z10gauss_algoiiPdPS_+0x490>
    1616:	95 cf       	rjmp	.-214    	; 0x1542 <_Z10gauss_algoiiPdPS_+0x3ba>
    1618:	98 cf       	rjmp	.-208    	; 0x154a <_Z10gauss_algoiiPdPS_+0x3c2>
    161a:	a9 89       	ldd	r26, Y+17	; 0x11
    161c:	ba 89       	ldd	r27, Y+18	; 0x12
    161e:	8d 91       	ld	r24, X+
    1620:	9c 91       	ld	r25, X
    1622:	01 96       	adiw	r24, 0x01	; 1
    1624:	69 f4       	brne	.+26     	; 0x1640 <_Z10gauss_algoiiPdPS_+0x4b8>
    1626:	05 c0       	rjmp	.+10     	; 0x1632 <_Z10gauss_algoiiPdPS_+0x4aa>
    1628:	21 91       	ld	r18, Z+
    162a:	31 91       	ld	r19, Z+
    162c:	2f 3f       	cpi	r18, 0xFF	; 255
    162e:	3f 4f       	sbci	r19, 0xFF	; 255
    1630:	61 f4       	brne	.+24     	; 0x164a <_Z10gauss_algoiiPdPS_+0x4c2>
    1632:	89 89       	ldd	r24, Y+17	; 0x11
    1634:	9a 89       	ldd	r25, Y+18	; 0x12
    1636:	0e 94 1f 1d 	call	0x3a3e	; 0x3a3e <free>
    163a:	82 e0       	ldi	r24, 0x02	; 2
    163c:	90 e0       	ldi	r25, 0x00	; 0
    163e:	37 c0       	rjmp	.+110    	; 0x16ae <_Z10gauss_algoiiPdPS_+0x526>
    1640:	e9 89       	ldd	r30, Y+17	; 0x11
    1642:	fa 89       	ldd	r31, Y+18	; 0x12
    1644:	32 96       	adiw	r30, 0x02	; 2
    1646:	80 e0       	ldi	r24, 0x00	; 0
    1648:	90 e0       	ldi	r25, 0x00	; 0
    164a:	01 96       	adiw	r24, 0x01	; 1
    164c:	82 15       	cp	r24, r2
    164e:	93 05       	cpc	r25, r3
    1650:	5c f3       	brlt	.-42     	; 0x1628 <_Z10gauss_algoiiPdPS_+0x4a0>
    1652:	89 89       	ldd	r24, Y+17	; 0x11
    1654:	9a 89       	ldd	r25, Y+18	; 0x12
    1656:	0e 94 1f 1d 	call	0x3a3e	; 0x3a3e <free>
    165a:	81 e0       	ldi	r24, 0x01	; 1
    165c:	90 e0       	ldi	r25, 0x00	; 0
    165e:	27 c0       	rjmp	.+78     	; 0x16ae <_Z10gauss_algoiiPdPS_+0x526>
    1660:	80 e0       	ldi	r24, 0x00	; 0
    1662:	90 e0       	ldi	r25, 0x00	; 0
    1664:	24 c0       	rjmp	.+72     	; 0x16ae <_Z10gauss_algoiiPdPS_+0x526>
    1666:	69 85       	ldd	r22, Y+9	; 0x09
    1668:	7a 85       	ldd	r23, Y+10	; 0x0a
    166a:	16 16       	cp	r1, r22
    166c:	17 06       	cpc	r1, r23
    166e:	0c f4       	brge	.+2      	; 0x1672 <_Z10gauss_algoiiPdPS_+0x4ea>
    1670:	de cd       	rjmp	.-1092   	; 0x122e <_Z10gauss_algoiiPdPS_+0xa6>
    1672:	ef 84       	ldd	r14, Y+15	; 0x0f
    1674:	f8 88       	ldd	r15, Y+16	; 0x10
    1676:	f7 01       	movw	r30, r14
    1678:	80 e0       	ldi	r24, 0x00	; 0
    167a:	90 e0       	ldi	r25, 0x00	; 0
    167c:	00 cf       	rjmp	.-512    	; 0x147e <_Z10gauss_algoiiPdPS_+0x2f6>
    167e:	eb 85       	ldd	r30, Y+11	; 0x0b
    1680:	fc 85       	ldd	r31, Y+12	; 0x0c
    1682:	ad 85       	ldd	r26, Y+13	; 0x0d
    1684:	be 85       	ldd	r27, Y+14	; 0x0e
    1686:	ed 93       	st	X+, r30
    1688:	fc 93       	st	X, r31
    168a:	cf 01       	movw	r24, r30
    168c:	88 0f       	add	r24, r24
    168e:	99 1f       	adc	r25, r25
    1690:	42 01       	movw	r8, r4
    1692:	88 0e       	add	r8, r24
    1694:	99 1e       	adc	r9, r25
    1696:	5e 82       	std	Y+6, r5	; 0x06
    1698:	4d 82       	std	Y+5, r4	; 0x05
    169a:	a1 2c       	mov	r10, r1
    169c:	b1 2c       	mov	r11, r1
    169e:	78 ce       	rjmp	.-784    	; 0x1390 <_Z10gauss_algoiiPdPS_+0x208>
    16a0:	29 85       	ldd	r18, Y+9	; 0x09
    16a2:	3a 85       	ldd	r19, Y+10	; 0x0a
    16a4:	12 16       	cp	r1, r18
    16a6:	13 06       	cpc	r1, r19
    16a8:	0c f4       	brge	.+2      	; 0x16ac <_Z10gauss_algoiiPdPS_+0x524>
    16aa:	3b cf       	rjmp	.-394    	; 0x1522 <_Z10gauss_algoiiPdPS_+0x39a>
    16ac:	b6 cf       	rjmp	.-148    	; 0x161a <_Z10gauss_algoiiPdPS_+0x492>
    16ae:	64 96       	adiw	r28, 0x14	; 20
    16b0:	0f b6       	in	r0, 0x3f	; 63
    16b2:	f8 94       	cli
    16b4:	de bf       	out	0x3e, r29	; 62
    16b6:	0f be       	out	0x3f, r0	; 63
    16b8:	cd bf       	out	0x3d, r28	; 61
    16ba:	df 91       	pop	r29
    16bc:	cf 91       	pop	r28
    16be:	1f 91       	pop	r17
    16c0:	0f 91       	pop	r16
    16c2:	ff 90       	pop	r15
    16c4:	ef 90       	pop	r14
    16c6:	df 90       	pop	r13
    16c8:	cf 90       	pop	r12
    16ca:	bf 90       	pop	r11
    16cc:	af 90       	pop	r10
    16ce:	9f 90       	pop	r9
    16d0:	8f 90       	pop	r8
    16d2:	7f 90       	pop	r7
    16d4:	6f 90       	pop	r6
    16d6:	5f 90       	pop	r5
    16d8:	4f 90       	pop	r4
    16da:	3f 90       	pop	r3
    16dc:	2f 90       	pop	r2
    16de:	08 95       	ret

000016e0 <_Z17evaluate_functionPcd>:
    16e0:	8f 92       	push	r8
    16e2:	9f 92       	push	r9
    16e4:	af 92       	push	r10
    16e6:	bf 92       	push	r11
    16e8:	cf 92       	push	r12
    16ea:	df 92       	push	r13
    16ec:	ef 92       	push	r14
    16ee:	ff 92       	push	r15
    16f0:	0f 93       	push	r16
    16f2:	1f 93       	push	r17
    16f4:	cf 93       	push	r28
    16f6:	df 93       	push	r29
    16f8:	cd b7       	in	r28, 0x3d	; 61
    16fa:	de b7       	in	r29, 0x3e	; 62
    16fc:	c7 5d       	subi	r28, 0xD7	; 215
    16fe:	d1 09       	sbc	r29, r1
    1700:	0f b6       	in	r0, 0x3f	; 63
    1702:	f8 94       	cli
    1704:	de bf       	out	0x3e, r29	; 62
    1706:	0f be       	out	0x3f, r0	; 63
    1708:	cd bf       	out	0x3d, r28	; 61
    170a:	fc 01       	movw	r30, r24
    170c:	4a 01       	movw	r8, r20
    170e:	5b 01       	movw	r10, r22
    1710:	90 81       	ld	r25, Z
    1712:	99 23       	and	r25, r25
    1714:	c1 f1       	breq	.+112    	; 0x1786 <_Z17evaluate_functionPcd+0xa6>
    1716:	6f 01       	movw	r12, r30
    1718:	8f ef       	ldi	r24, 0xFF	; 255
    171a:	c8 1a       	sub	r12, r24
    171c:	d8 0a       	sbc	r13, r24
    171e:	e1 2c       	mov	r14, r1
    1720:	f1 2c       	mov	r15, r1
    1722:	98 37       	cpi	r25, 0x78	; 120
    1724:	01 f5       	brne	.+64     	; 0x1766 <_Z17evaluate_functionPcd+0x86>
    1726:	8e 01       	movw	r16, r28
    1728:	04 53       	subi	r16, 0x34	; 52
    172a:	1f 4f       	sbci	r17, 0xFF	; 255
    172c:	23 e0       	ldi	r18, 0x03	; 3
    172e:	41 e0       	ldi	r20, 0x01	; 1
    1730:	c5 01       	movw	r24, r10
    1732:	b4 01       	movw	r22, r8
    1734:	0e 94 67 1c 	call	0x38ce	; 0x38ce <dtostrf>
    1738:	c4 53       	subi	r28, 0x34	; 52
    173a:	df 4f       	sbci	r29, 0xFF	; 255
    173c:	98 81       	ld	r25, Y
    173e:	cc 5c       	subi	r28, 0xCC	; 204
    1740:	d0 40       	sbci	r29, 0x00	; 0
    1742:	99 23       	and	r25, r25
    1744:	d1 f0       	breq	.+52     	; 0x177a <_Z17evaluate_functionPcd+0x9a>
    1746:	a1 e0       	ldi	r26, 0x01	; 1
    1748:	b0 e0       	ldi	r27, 0x00	; 0
    174a:	ac 0f       	add	r26, r28
    174c:	bd 1f       	adc	r27, r29
    174e:	ae 0d       	add	r26, r14
    1750:	bf 1d       	adc	r27, r15
    1752:	f8 01       	movw	r30, r16
    1754:	31 96       	adiw	r30, 0x01	; 1
    1756:	9d 93       	st	X+, r25
    1758:	8f ef       	ldi	r24, 0xFF	; 255
    175a:	e8 1a       	sub	r14, r24
    175c:	f8 0a       	sbc	r15, r24
    175e:	91 91       	ld	r25, Z+
    1760:	91 11       	cpse	r25, r1
    1762:	f9 cf       	rjmp	.-14     	; 0x1756 <_Z17evaluate_functionPcd+0x76>
    1764:	0a c0       	rjmp	.+20     	; 0x177a <_Z17evaluate_functionPcd+0x9a>
    1766:	e1 e0       	ldi	r30, 0x01	; 1
    1768:	f0 e0       	ldi	r31, 0x00	; 0
    176a:	ec 0f       	add	r30, r28
    176c:	fd 1f       	adc	r31, r29
    176e:	ee 0d       	add	r30, r14
    1770:	ff 1d       	adc	r31, r15
    1772:	90 83       	st	Z, r25
    1774:	ef ef       	ldi	r30, 0xFF	; 255
    1776:	ee 1a       	sub	r14, r30
    1778:	fe 0a       	sbc	r15, r30
    177a:	f6 01       	movw	r30, r12
    177c:	91 91       	ld	r25, Z+
    177e:	6f 01       	movw	r12, r30
    1780:	91 11       	cpse	r25, r1
    1782:	cf cf       	rjmp	.-98     	; 0x1722 <_Z17evaluate_functionPcd+0x42>
    1784:	02 c0       	rjmp	.+4      	; 0x178a <_Z17evaluate_functionPcd+0xaa>
    1786:	e1 2c       	mov	r14, r1
    1788:	f1 2c       	mov	r15, r1
    178a:	e1 e0       	ldi	r30, 0x01	; 1
    178c:	f0 e0       	ldi	r31, 0x00	; 0
    178e:	ec 0f       	add	r30, r28
    1790:	fd 1f       	adc	r31, r29
    1792:	ee 0d       	add	r30, r14
    1794:	ff 1d       	adc	r31, r15
    1796:	10 82       	st	Z, r1
    1798:	ce 01       	movw	r24, r28
    179a:	8b 59       	subi	r24, 0x9B	; 155
    179c:	9f 4f       	sbci	r25, 0xFF	; 255
    179e:	0e 94 df 03 	call	0x7be	; 0x7be <_ZN6parserC1Ev>
    17a2:	be 01       	movw	r22, r28
    17a4:	6f 5f       	subi	r22, 0xFF	; 255
    17a6:	7f 4f       	sbci	r23, 0xFF	; 255
    17a8:	ce 01       	movw	r24, r28
    17aa:	8b 59       	subi	r24, 0x9B	; 155
    17ac:	9f 4f       	sbci	r25, 0xFF	; 255
    17ae:	0e 94 7f 08 	call	0x10fe	; 0x10fe <_ZN6parser8eval_expEPc>
    17b2:	c9 52       	subi	r28, 0x29	; 41
    17b4:	df 4f       	sbci	r29, 0xFF	; 255
    17b6:	0f b6       	in	r0, 0x3f	; 63
    17b8:	f8 94       	cli
    17ba:	de bf       	out	0x3e, r29	; 62
    17bc:	0f be       	out	0x3f, r0	; 63
    17be:	cd bf       	out	0x3d, r28	; 61
    17c0:	df 91       	pop	r29
    17c2:	cf 91       	pop	r28
    17c4:	1f 91       	pop	r17
    17c6:	0f 91       	pop	r16
    17c8:	ff 90       	pop	r15
    17ca:	ef 90       	pop	r14
    17cc:	df 90       	pop	r13
    17ce:	cf 90       	pop	r12
    17d0:	bf 90       	pop	r11
    17d2:	af 90       	pop	r10
    17d4:	9f 90       	pop	r9
    17d6:	8f 90       	pop	r8
    17d8:	08 95       	ret

000017da <_Z19simpson_integrationPcdd>:
    17da:	2f 92       	push	r2
    17dc:	3f 92       	push	r3
    17de:	4f 92       	push	r4
    17e0:	5f 92       	push	r5
    17e2:	6f 92       	push	r6
    17e4:	7f 92       	push	r7
    17e6:	8f 92       	push	r8
    17e8:	9f 92       	push	r9
    17ea:	af 92       	push	r10
    17ec:	bf 92       	push	r11
    17ee:	cf 92       	push	r12
    17f0:	df 92       	push	r13
    17f2:	ef 92       	push	r14
    17f4:	ff 92       	push	r15
    17f6:	0f 93       	push	r16
    17f8:	1f 93       	push	r17
    17fa:	cf 93       	push	r28
    17fc:	df 93       	push	r29
    17fe:	cd b7       	in	r28, 0x3d	; 61
    1800:	de b7       	in	r29, 0x3e	; 62
    1802:	28 97       	sbiw	r28, 0x08	; 8
    1804:	0f b6       	in	r0, 0x3f	; 63
    1806:	f8 94       	cli
    1808:	de bf       	out	0x3e, r29	; 62
    180a:	0f be       	out	0x3f, r0	; 63
    180c:	cd bf       	out	0x3d, r28	; 61
    180e:	7c 01       	movw	r14, r24
    1810:	2a 01       	movw	r4, r20
    1812:	3b 01       	movw	r6, r22
    1814:	48 01       	movw	r8, r16
    1816:	59 01       	movw	r10, r18
    1818:	9a 01       	movw	r18, r20
    181a:	ab 01       	movw	r20, r22
    181c:	c5 01       	movw	r24, r10
    181e:	b4 01       	movw	r22, r8
    1820:	0e 94 7d 16 	call	0x2cfa	; 0x2cfa <__subsf3>
    1824:	20 e0       	ldi	r18, 0x00	; 0
    1826:	30 e0       	ldi	r19, 0x00	; 0
    1828:	4a ef       	ldi	r20, 0xFA	; 250
    182a:	53 e4       	ldi	r21, 0x43	; 67
    182c:	0e 94 55 17 	call	0x2eaa	; 0x2eaa <__divsf3>
    1830:	69 83       	std	Y+1, r22	; 0x01
    1832:	7a 83       	std	Y+2, r23	; 0x02
    1834:	8b 83       	std	Y+3, r24	; 0x03
    1836:	9c 83       	std	Y+4, r25	; 0x04
    1838:	b3 01       	movw	r22, r6
    183a:	a2 01       	movw	r20, r4
    183c:	c7 01       	movw	r24, r14
    183e:	0e 94 70 0b 	call	0x16e0	; 0x16e0 <_Z17evaluate_functionPcd>
    1842:	6d 83       	std	Y+5, r22	; 0x05
    1844:	7e 83       	std	Y+6, r23	; 0x06
    1846:	8f 83       	std	Y+7, r24	; 0x07
    1848:	98 87       	std	Y+8, r25	; 0x08
    184a:	b5 01       	movw	r22, r10
    184c:	a4 01       	movw	r20, r8
    184e:	c7 01       	movw	r24, r14
    1850:	0e 94 70 0b 	call	0x16e0	; 0x16e0 <_Z17evaluate_functionPcd>
    1854:	9b 01       	movw	r18, r22
    1856:	ac 01       	movw	r20, r24
    1858:	6d 81       	ldd	r22, Y+5	; 0x05
    185a:	7e 81       	ldd	r23, Y+6	; 0x06
    185c:	8f 81       	ldd	r24, Y+7	; 0x07
    185e:	98 85       	ldd	r25, Y+8	; 0x08
    1860:	0e 94 7e 16 	call	0x2cfc	; 0x2cfc <__addsf3>
    1864:	4b 01       	movw	r8, r22
    1866:	5c 01       	movw	r10, r24
    1868:	29 81       	ldd	r18, Y+1	; 0x01
    186a:	3a 81       	ldd	r19, Y+2	; 0x02
    186c:	4b 81       	ldd	r20, Y+3	; 0x03
    186e:	5c 81       	ldd	r21, Y+4	; 0x04
    1870:	c3 01       	movw	r24, r6
    1872:	b2 01       	movw	r22, r4
    1874:	0e 94 7e 16 	call	0x2cfc	; 0x2cfc <__addsf3>
    1878:	ab 01       	movw	r20, r22
    187a:	bc 01       	movw	r22, r24
    187c:	c7 01       	movw	r24, r14
    187e:	0e 94 70 0b 	call	0x16e0	; 0x16e0 <_Z17evaluate_functionPcd>
    1882:	9b 01       	movw	r18, r22
    1884:	ac 01       	movw	r20, r24
    1886:	81 e0       	ldi	r24, 0x01	; 1
    1888:	90 e0       	ldi	r25, 0x00	; 0
    188a:	b0 e0       	ldi	r27, 0x00	; 0
    188c:	a0 e0       	ldi	r26, 0x00	; 0
    188e:	f0 e8       	ldi	r31, 0x80	; 128
    1890:	e0 e4       	ldi	r30, 0x40	; 64
    1892:	d1 2c       	mov	r13, r1
    1894:	00 e8       	ldi	r16, 0x80	; 128
    1896:	c1 2c       	mov	r12, r1
    1898:	31 2c       	mov	r3, r1
    189a:	21 2c       	mov	r2, r1
    189c:	10 e4       	ldi	r17, 0x40	; 64
    189e:	9e 83       	std	Y+6, r25	; 0x06
    18a0:	8d 83       	std	Y+5, r24	; 0x05
    18a2:	25 c0       	rjmp	.+74     	; 0x18ee <_Z19simpson_integrationPcdd+0x114>
    18a4:	2d 81       	ldd	r18, Y+5	; 0x05
    18a6:	3e 81       	ldd	r19, Y+6	; 0x06
    18a8:	b9 01       	movw	r22, r18
    18aa:	33 0f       	add	r19, r19
    18ac:	88 0b       	sbc	r24, r24
    18ae:	99 0b       	sbc	r25, r25
    18b0:	0e 94 39 18 	call	0x3072	; 0x3072 <__floatsisf>
    18b4:	29 81       	ldd	r18, Y+1	; 0x01
    18b6:	3a 81       	ldd	r19, Y+2	; 0x02
    18b8:	4b 81       	ldd	r20, Y+3	; 0x03
    18ba:	5c 81       	ldd	r21, Y+4	; 0x04
    18bc:	0e 94 ae 1a 	call	0x355c	; 0x355c <__mulsf3>
    18c0:	a3 01       	movw	r20, r6
    18c2:	92 01       	movw	r18, r4
    18c4:	0e 94 7e 16 	call	0x2cfc	; 0x2cfc <__addsf3>
    18c8:	ab 01       	movw	r20, r22
    18ca:	bc 01       	movw	r22, r24
    18cc:	c7 01       	movw	r24, r14
    18ce:	0e 94 70 0b 	call	0x16e0	; 0x16e0 <_Z17evaluate_functionPcd>
    18d2:	9b 01       	movw	r18, r22
    18d4:	ac 01       	movw	r20, r24
    18d6:	8d 81       	ldd	r24, Y+5	; 0x05
    18d8:	80 fd       	sbrc	r24, 0
    18da:	05 c0       	rjmp	.+10     	; 0x18e6 <_Z19simpson_integrationPcdd+0x10c>
    18dc:	bc 2d       	mov	r27, r12
    18de:	a3 2d       	mov	r26, r3
    18e0:	f2 2d       	mov	r31, r2
    18e2:	e1 2f       	mov	r30, r17
    18e4:	04 c0       	rjmp	.+8      	; 0x18ee <_Z19simpson_integrationPcdd+0x114>
    18e6:	b0 e0       	ldi	r27, 0x00	; 0
    18e8:	ad 2d       	mov	r26, r13
    18ea:	f0 2f       	mov	r31, r16
    18ec:	e0 e4       	ldi	r30, 0x40	; 64
    18ee:	6b 2f       	mov	r22, r27
    18f0:	7a 2f       	mov	r23, r26
    18f2:	8f 2f       	mov	r24, r31
    18f4:	9e 2f       	mov	r25, r30
    18f6:	0e 94 ae 1a 	call	0x355c	; 0x355c <__mulsf3>
    18fa:	9b 01       	movw	r18, r22
    18fc:	ac 01       	movw	r20, r24
    18fe:	c5 01       	movw	r24, r10
    1900:	b4 01       	movw	r22, r8
    1902:	0e 94 7e 16 	call	0x2cfc	; 0x2cfc <__addsf3>
    1906:	4b 01       	movw	r8, r22
    1908:	5c 01       	movw	r10, r24
    190a:	2d 81       	ldd	r18, Y+5	; 0x05
    190c:	3e 81       	ldd	r19, Y+6	; 0x06
    190e:	2f 5f       	subi	r18, 0xFF	; 255
    1910:	3f 4f       	sbci	r19, 0xFF	; 255
    1912:	3e 83       	std	Y+6, r19	; 0x06
    1914:	2d 83       	std	Y+5, r18	; 0x05
    1916:	24 3f       	cpi	r18, 0xF4	; 244
    1918:	31 40       	sbci	r19, 0x01	; 1
    191a:	21 f6       	brne	.-120    	; 0x18a4 <_Z19simpson_integrationPcdd+0xca>
    191c:	20 e0       	ldi	r18, 0x00	; 0
    191e:	30 e0       	ldi	r19, 0x00	; 0
    1920:	40 e4       	ldi	r20, 0x40	; 64
    1922:	50 e4       	ldi	r21, 0x40	; 64
    1924:	69 81       	ldd	r22, Y+1	; 0x01
    1926:	7a 81       	ldd	r23, Y+2	; 0x02
    1928:	8b 81       	ldd	r24, Y+3	; 0x03
    192a:	9c 81       	ldd	r25, Y+4	; 0x04
    192c:	0e 94 55 17 	call	0x2eaa	; 0x2eaa <__divsf3>
    1930:	a5 01       	movw	r20, r10
    1932:	94 01       	movw	r18, r8
    1934:	0e 94 ae 1a 	call	0x355c	; 0x355c <__mulsf3>
    1938:	28 96       	adiw	r28, 0x08	; 8
    193a:	0f b6       	in	r0, 0x3f	; 63
    193c:	f8 94       	cli
    193e:	de bf       	out	0x3e, r29	; 62
    1940:	0f be       	out	0x3f, r0	; 63
    1942:	cd bf       	out	0x3d, r28	; 61
    1944:	df 91       	pop	r29
    1946:	cf 91       	pop	r28
    1948:	1f 91       	pop	r17
    194a:	0f 91       	pop	r16
    194c:	ff 90       	pop	r15
    194e:	ef 90       	pop	r14
    1950:	df 90       	pop	r13
    1952:	cf 90       	pop	r12
    1954:	bf 90       	pop	r11
    1956:	af 90       	pop	r10
    1958:	9f 90       	pop	r9
    195a:	8f 90       	pop	r8
    195c:	7f 90       	pop	r7
    195e:	6f 90       	pop	r6
    1960:	5f 90       	pop	r5
    1962:	4f 90       	pop	r4
    1964:	3f 90       	pop	r3
    1966:	2f 90       	pop	r2
    1968:	08 95       	ret

0000196a <_Z12initial_pagev>:
    196a:	cf 93       	push	r28
    196c:	df 93       	push	r29
    196e:	cd b7       	in	r28, 0x3d	; 61
    1970:	de b7       	in	r29, 0x3e	; 62
    1972:	c0 54       	subi	r28, 0x40	; 64
    1974:	d1 09       	sbc	r29, r1
    1976:	0f b6       	in	r0, 0x3f	; 63
    1978:	f8 94       	cli
    197a:	de bf       	out	0x3e, r29	; 62
    197c:	0f be       	out	0x3f, r0	; 63
    197e:	cd bf       	out	0x3d, r28	; 61
    1980:	8d e0       	ldi	r24, 0x0D	; 13
    1982:	e2 ed       	ldi	r30, 0xD2	; 210
    1984:	f1 e0       	ldi	r31, 0x01	; 1
    1986:	de 01       	movw	r26, r28
    1988:	11 96       	adiw	r26, 0x01	; 1
    198a:	01 90       	ld	r0, Z+
    198c:	0d 92       	st	X+, r0
    198e:	8a 95       	dec	r24
    1990:	e1 f7       	brne	.-8      	; 0x198a <_Z12initial_pagev+0x20>
    1992:	ae 01       	movw	r20, r28
    1994:	4f 5f       	subi	r20, 0xFF	; 255
    1996:	5f 4f       	sbci	r21, 0xFF	; 255
    1998:	61 e0       	ldi	r22, 0x01	; 1
    199a:	81 e0       	ldi	r24, 0x01	; 1
    199c:	0e 94 b7 03 	call	0x76e	; 0x76e <_Z11DisplayTexthhPc>
    19a0:	84 e1       	ldi	r24, 0x14	; 20
    19a2:	ef ed       	ldi	r30, 0xDF	; 223
    19a4:	f1 e0       	ldi	r31, 0x01	; 1
    19a6:	de 01       	movw	r26, r28
    19a8:	1e 96       	adiw	r26, 0x0e	; 14
    19aa:	01 90       	ld	r0, Z+
    19ac:	0d 92       	st	X+, r0
    19ae:	8a 95       	dec	r24
    19b0:	e1 f7       	brne	.-8      	; 0x19aa <_Z12initial_pagev+0x40>
    19b2:	ae 01       	movw	r20, r28
    19b4:	42 5f       	subi	r20, 0xF2	; 242
    19b6:	5f 4f       	sbci	r21, 0xFF	; 255
    19b8:	6c e0       	ldi	r22, 0x0C	; 12
    19ba:	81 e0       	ldi	r24, 0x01	; 1
    19bc:	0e 94 b7 03 	call	0x76e	; 0x76e <_Z11DisplayTexthhPc>
    19c0:	81 e1       	ldi	r24, 0x11	; 17
    19c2:	e3 ef       	ldi	r30, 0xF3	; 243
    19c4:	f1 e0       	ldi	r31, 0x01	; 1
    19c6:	de 01       	movw	r26, r28
    19c8:	92 96       	adiw	r26, 0x22	; 34
    19ca:	01 90       	ld	r0, Z+
    19cc:	0d 92       	st	X+, r0
    19ce:	8a 95       	dec	r24
    19d0:	e1 f7       	brne	.-8      	; 0x19ca <_Z12initial_pagev+0x60>
    19d2:	ae 01       	movw	r20, r28
    19d4:	4e 5d       	subi	r20, 0xDE	; 222
    19d6:	5f 4f       	sbci	r21, 0xFF	; 255
    19d8:	68 e1       	ldi	r22, 0x18	; 24
    19da:	81 e0       	ldi	r24, 0x01	; 1
    19dc:	0e 94 b7 03 	call	0x76e	; 0x76e <_Z11DisplayTexthhPc>
    19e0:	8e e0       	ldi	r24, 0x0E	; 14
    19e2:	e4 e0       	ldi	r30, 0x04	; 4
    19e4:	f2 e0       	ldi	r31, 0x02	; 2
    19e6:	de 01       	movw	r26, r28
    19e8:	d3 96       	adiw	r26, 0x33	; 51
    19ea:	01 90       	ld	r0, Z+
    19ec:	0d 92       	st	X+, r0
    19ee:	8a 95       	dec	r24
    19f0:	e1 f7       	brne	.-8      	; 0x19ea <_Z12initial_pagev+0x80>
    19f2:	ae 01       	movw	r20, r28
    19f4:	4d 5c       	subi	r20, 0xCD	; 205
    19f6:	5f 4f       	sbci	r21, 0xFF	; 255
    19f8:	64 e2       	ldi	r22, 0x24	; 36
    19fa:	81 e0       	ldi	r24, 0x01	; 1
    19fc:	0e 94 b7 03 	call	0x76e	; 0x76e <_Z11DisplayTexthhPc>
    1a00:	c0 5c       	subi	r28, 0xC0	; 192
    1a02:	df 4f       	sbci	r29, 0xFF	; 255
    1a04:	0f b6       	in	r0, 0x3f	; 63
    1a06:	f8 94       	cli
    1a08:	de bf       	out	0x3e, r29	; 62
    1a0a:	0f be       	out	0x3f, r0	; 63
    1a0c:	cd bf       	out	0x3d, r28	; 61
    1a0e:	df 91       	pop	r29
    1a10:	cf 91       	pop	r28
    1a12:	08 95       	ret

00001a14 <_Z13mode_selectorv>:
    1a14:	cf 93       	push	r28
    1a16:	a1 e0       	ldi	r26, 0x01	; 1
    1a18:	b0 e0       	ldi	r27, 0x00	; 0
    1a1a:	64 e0       	ldi	r22, 0x04	; 4
    1a1c:	70 e0       	ldi	r23, 0x00	; 0
    1a1e:	cd 01       	movw	r24, r26
    1a20:	06 2e       	mov	r0, r22
    1a22:	02 c0       	rjmp	.+4      	; 0x1a28 <_Z13mode_selectorv+0x14>
    1a24:	88 0f       	add	r24, r24
    1a26:	99 1f       	adc	r25, r25
    1a28:	0a 94       	dec	r0
    1a2a:	e2 f7       	brpl	.-8      	; 0x1a24 <_Z13mode_selectorv+0x10>
    1a2c:	88 bb       	out	0x18, r24	; 24
    1a2e:	cb 01       	movw	r24, r22
    1a30:	04 97       	sbiw	r24, 0x04	; 4
    1a32:	fc 01       	movw	r30, r24
    1a34:	ea 53       	subi	r30, 0x3A	; 58
    1a36:	ff 4f       	sbci	r31, 0xFF	; 255
    1a38:	20 e0       	ldi	r18, 0x00	; 0
    1a3a:	30 e0       	ldi	r19, 0x00	; 0
    1a3c:	c8 2f       	mov	r28, r24
    1a3e:	59 2f       	mov	r21, r25
    1a40:	86 b3       	in	r24, 0x16	; 22
    1a42:	90 e0       	ldi	r25, 0x00	; 0
    1a44:	02 2e       	mov	r0, r18
    1a46:	02 c0       	rjmp	.+4      	; 0x1a4c <_Z13mode_selectorv+0x38>
    1a48:	95 95       	asr	r25
    1a4a:	87 95       	ror	r24
    1a4c:	0a 94       	dec	r0
    1a4e:	e2 f7       	brpl	.-8      	; 0x1a48 <_Z13mode_selectorv+0x34>
    1a50:	80 ff       	sbrs	r24, 0
    1a52:	23 c0       	rjmp	.+70     	; 0x1a9a <_Z13mode_selectorv+0x86>
    1a54:	8c 2f       	mov	r24, r28
    1a56:	95 2f       	mov	r25, r21
    1a58:	40 81       	ld	r20, Z
    1a5a:	41 53       	subi	r20, 0x31	; 49
    1a5c:	44 30       	cpi	r20, 0x04	; 4
    1a5e:	a0 f4       	brcc	.+40     	; 0x1a88 <_Z13mode_selectorv+0x74>
    1a60:	4f ef       	ldi	r20, 0xFF	; 255
    1a62:	54 e3       	ldi	r21, 0x34	; 52
    1a64:	6c e0       	ldi	r22, 0x0C	; 12
    1a66:	41 50       	subi	r20, 0x01	; 1
    1a68:	50 40       	sbci	r21, 0x00	; 0
    1a6a:	60 40       	sbci	r22, 0x00	; 0
    1a6c:	e1 f7       	brne	.-8      	; 0x1a66 <_Z13mode_selectorv+0x52>
    1a6e:	00 c0       	rjmp	.+0      	; 0x1a70 <_Z13mode_selectorv+0x5c>
    1a70:	00 00       	nop
    1a72:	22 0f       	add	r18, r18
    1a74:	33 1f       	adc	r19, r19
    1a76:	22 0f       	add	r18, r18
    1a78:	33 1f       	adc	r19, r19
    1a7a:	2a 53       	subi	r18, 0x3A	; 58
    1a7c:	3f 4f       	sbci	r19, 0xFF	; 255
    1a7e:	f9 01       	movw	r30, r18
    1a80:	e8 0f       	add	r30, r24
    1a82:	f9 1f       	adc	r31, r25
    1a84:	80 81       	ld	r24, Z
    1a86:	1c c0       	rjmp	.+56     	; 0x1ac0 <_Z13mode_selectorv+0xac>
    1a88:	8f ef       	ldi	r24, 0xFF	; 255
    1a8a:	94 e3       	ldi	r25, 0x34	; 52
    1a8c:	4c e0       	ldi	r20, 0x0C	; 12
    1a8e:	81 50       	subi	r24, 0x01	; 1
    1a90:	90 40       	sbci	r25, 0x00	; 0
    1a92:	40 40       	sbci	r20, 0x00	; 0
    1a94:	e1 f7       	brne	.-8      	; 0x1a8e <_Z13mode_selectorv+0x7a>
    1a96:	00 c0       	rjmp	.+0      	; 0x1a98 <_Z13mode_selectorv+0x84>
    1a98:	00 00       	nop
    1a9a:	2f 5f       	subi	r18, 0xFF	; 255
    1a9c:	3f 4f       	sbci	r19, 0xFF	; 255
    1a9e:	34 96       	adiw	r30, 0x04	; 4
    1aa0:	24 30       	cpi	r18, 0x04	; 4
    1aa2:	31 05       	cpc	r19, r1
    1aa4:	69 f6       	brne	.-102    	; 0x1a40 <_Z13mode_selectorv+0x2c>
    1aa6:	8f e1       	ldi	r24, 0x1F	; 31
    1aa8:	9e e4       	ldi	r25, 0x4E	; 78
    1aaa:	01 97       	sbiw	r24, 0x01	; 1
    1aac:	f1 f7       	brne	.-4      	; 0x1aaa <_Z13mode_selectorv+0x96>
    1aae:	00 c0       	rjmp	.+0      	; 0x1ab0 <_Z13mode_selectorv+0x9c>
    1ab0:	00 00       	nop
    1ab2:	6f 5f       	subi	r22, 0xFF	; 255
    1ab4:	7f 4f       	sbci	r23, 0xFF	; 255
    1ab6:	68 30       	cpi	r22, 0x08	; 8
    1ab8:	71 05       	cpc	r23, r1
    1aba:	09 f0       	breq	.+2      	; 0x1abe <_Z13mode_selectorv+0xaa>
    1abc:	b0 cf       	rjmp	.-160    	; 0x1a1e <_Z13mode_selectorv+0xa>
    1abe:	ad cf       	rjmp	.-166    	; 0x1a1a <_Z13mode_selectorv+0x6>
    1ac0:	cf 91       	pop	r28
    1ac2:	08 95       	ret

00001ac4 <_Z6appendPciS_>:
    1ac4:	9c 01       	movw	r18, r24
    1ac6:	fa 01       	movw	r30, r20
    1ac8:	90 81       	ld	r25, Z
    1aca:	99 23       	and	r25, r25
    1acc:	51 f0       	breq	.+20     	; 0x1ae2 <_Z6appendPciS_+0x1e>
    1ace:	d9 01       	movw	r26, r18
    1ad0:	a6 0f       	add	r26, r22
    1ad2:	b7 1f       	adc	r27, r23
    1ad4:	31 96       	adiw	r30, 0x01	; 1
    1ad6:	9d 93       	st	X+, r25
    1ad8:	6f 5f       	subi	r22, 0xFF	; 255
    1ada:	7f 4f       	sbci	r23, 0xFF	; 255
    1adc:	91 91       	ld	r25, Z+
    1ade:	91 11       	cpse	r25, r1
    1ae0:	fa cf       	rjmp	.-12     	; 0x1ad6 <_Z6appendPciS_+0x12>
    1ae2:	f9 01       	movw	r30, r18
    1ae4:	e6 0f       	add	r30, r22
    1ae6:	f7 1f       	adc	r31, r23
    1ae8:	10 82       	st	Z, r1
    1aea:	08 95       	ret

00001aec <_Z10calculatorv>:
    1aec:	cf 93       	push	r28
    1aee:	df 93       	push	r29
    1af0:	cd b7       	in	r28, 0x3d	; 61
    1af2:	de b7       	in	r29, 0x3e	; 62
    1af4:	cd 59       	subi	r28, 0x9D	; 157
    1af6:	d1 09       	sbc	r29, r1
    1af8:	0f b6       	in	r0, 0x3f	; 63
    1afa:	f8 94       	cli
    1afc:	de bf       	out	0x3e, r29	; 62
    1afe:	0f be       	out	0x3f, r0	; 63
    1b00:	cd bf       	out	0x3d, r28	; 61
    1b02:	0e 94 2d 03 	call	0x65a	; 0x65a <_Z9LCD_Clearv>
    1b06:	88 24       	eor	r8, r8
    1b08:	83 94       	inc	r8
    1b0a:	91 2c       	mov	r9, r1
    1b0c:	c1 2c       	mov	r12, r1
    1b0e:	d1 2c       	mov	r13, r1
    1b10:	9e 01       	movw	r18, r28
    1b12:	2f 5f       	subi	r18, 0xFF	; 255
    1b14:	3f 4f       	sbci	r19, 0xFF	; 255
    1b16:	19 01       	movw	r2, r18
    1b18:	c6 56       	subi	r28, 0x66	; 102
    1b1a:	df 4f       	sbci	r29, 0xFF	; 255
    1b1c:	28 83       	st	Y, r18
    1b1e:	ca 59       	subi	r28, 0x9A	; 154
    1b20:	d0 40       	sbci	r29, 0x00	; 0
    1b22:	c5 56       	subi	r28, 0x65	; 101
    1b24:	df 4f       	sbci	r29, 0xFF	; 255
    1b26:	38 82       	st	Y, r3
    1b28:	cb 59       	subi	r28, 0x9B	; 155
    1b2a:	d0 40       	sbci	r29, 0x00	; 0
    1b2c:	0f 2e       	mov	r0, r31
    1b2e:	f6 e6       	ldi	r31, 0x66	; 102
    1b30:	4f 2e       	mov	r4, r31
    1b32:	f0 e0       	ldi	r31, 0x00	; 0
    1b34:	5f 2e       	mov	r5, r31
    1b36:	f0 2d       	mov	r31, r0
    1b38:	68 94       	set
    1b3a:	ee 24       	eor	r14, r14
    1b3c:	e2 f8       	bld	r14, 2
    1b3e:	f1 2c       	mov	r15, r1
    1b40:	81 e0       	ldi	r24, 0x01	; 1
    1b42:	90 e0       	ldi	r25, 0x00	; 0
    1b44:	0e 2c       	mov	r0, r14
    1b46:	02 c0       	rjmp	.+4      	; 0x1b4c <_Z10calculatorv+0x60>
    1b48:	88 0f       	add	r24, r24
    1b4a:	99 1f       	adc	r25, r25
    1b4c:	0a 94       	dec	r0
    1b4e:	e2 f7       	brpl	.-8      	; 0x1b48 <_Z10calculatorv+0x5c>
    1b50:	88 bb       	out	0x18, r24	; 24
    1b52:	8b bb       	out	0x1b, r24	; 27
    1b54:	c7 01       	movw	r24, r14
    1b56:	8e 53       	subi	r24, 0x3E	; 62
    1b58:	9f 4f       	sbci	r25, 0xFF	; 255
    1b5a:	5c 01       	movw	r10, r24
    1b5c:	32 01       	movw	r6, r4
    1b5e:	00 e0       	ldi	r16, 0x00	; 0
    1b60:	10 e0       	ldi	r17, 0x00	; 0
    1b62:	86 b3       	in	r24, 0x16	; 22
    1b64:	90 e0       	ldi	r25, 0x00	; 0
    1b66:	00 2e       	mov	r0, r16
    1b68:	02 c0       	rjmp	.+4      	; 0x1b6e <_Z10calculatorv+0x82>
    1b6a:	95 95       	asr	r25
    1b6c:	87 95       	ror	r24
    1b6e:	0a 94       	dec	r0
    1b70:	e2 f7       	brpl	.-8      	; 0x1b6a <_Z10calculatorv+0x7e>
    1b72:	80 ff       	sbrs	r24, 0
    1b74:	97 c0       	rjmp	.+302    	; 0x1ca4 <_Z10calculatorv+0x1b8>
    1b76:	f5 01       	movw	r30, r10
    1b78:	80 81       	ld	r24, Z
    1b7a:	83 34       	cpi	r24, 0x43	; 67
    1b7c:	b9 f4       	brne	.+46     	; 0x1bac <_Z10calculatorv+0xc0>
    1b7e:	19 82       	std	Y+1, r1	; 0x01
    1b80:	0e 94 2d 03 	call	0x65a	; 0x65a <_Z9LCD_Clearv>
    1b84:	c6 56       	subi	r28, 0x66	; 102
    1b86:	df 4f       	sbci	r29, 0xFF	; 255
    1b88:	48 81       	ld	r20, Y
    1b8a:	ca 59       	subi	r28, 0x9A	; 154
    1b8c:	d0 40       	sbci	r29, 0x00	; 0
    1b8e:	c5 56       	subi	r28, 0x65	; 101
    1b90:	df 4f       	sbci	r29, 0xFF	; 255
    1b92:	58 81       	ld	r21, Y
    1b94:	cb 59       	subi	r28, 0x9B	; 155
    1b96:	d0 40       	sbci	r29, 0x00	; 0
    1b98:	61 e0       	ldi	r22, 0x01	; 1
    1b9a:	81 e0       	ldi	r24, 0x01	; 1
    1b9c:	0e 94 b7 03 	call	0x76e	; 0x76e <_Z11DisplayTexthhPc>
    1ba0:	88 24       	eor	r8, r8
    1ba2:	83 94       	inc	r8
    1ba4:	91 2c       	mov	r9, r1
    1ba6:	c1 2c       	mov	r12, r1
    1ba8:	d1 2c       	mov	r13, r1
    1baa:	72 c0       	rjmp	.+228    	; 0x1c90 <_Z10calculatorv+0x1a4>
    1bac:	8d 33       	cpi	r24, 0x3D	; 61
    1bae:	09 f0       	breq	.+2      	; 0x1bb2 <_Z10calculatorv+0xc6>
    1bb0:	4c c0       	rjmp	.+152    	; 0x1c4a <_Z10calculatorv+0x15e>
    1bb2:	ce 01       	movw	r24, r28
    1bb4:	c3 96       	adiw	r24, 0x33	; 51
    1bb6:	0e 94 df 03 	call	0x7be	; 0x7be <_ZN6parserC1Ev>
    1bba:	c6 56       	subi	r28, 0x66	; 102
    1bbc:	df 4f       	sbci	r29, 0xFF	; 255
    1bbe:	68 81       	ld	r22, Y
    1bc0:	ca 59       	subi	r28, 0x9A	; 154
    1bc2:	d0 40       	sbci	r29, 0x00	; 0
    1bc4:	c5 56       	subi	r28, 0x65	; 101
    1bc6:	df 4f       	sbci	r29, 0xFF	; 255
    1bc8:	78 81       	ld	r23, Y
    1bca:	cb 59       	subi	r28, 0x9B	; 155
    1bcc:	d0 40       	sbci	r29, 0x00	; 0
    1bce:	ce 01       	movw	r24, r28
    1bd0:	c3 96       	adiw	r24, 0x33	; 51
    1bd2:	0e 94 7f 08 	call	0x10fe	; 0x10fe <_ZN6parser8eval_expEPc>
    1bd6:	ff ef       	ldi	r31, 0xFF	; 255
    1bd8:	20 e7       	ldi	r18, 0x70	; 112
    1bda:	32 e0       	ldi	r19, 0x02	; 2
    1bdc:	f1 50       	subi	r31, 0x01	; 1
    1bde:	20 40       	sbci	r18, 0x00	; 0
    1be0:	30 40       	sbci	r19, 0x00	; 0
    1be2:	e1 f7       	brne	.-8      	; 0x1bdc <_Z10calculatorv+0xf0>
    1be4:	00 c0       	rjmp	.+0      	; 0x1be6 <_Z10calculatorv+0xfa>
    1be6:	00 00       	nop
    1be8:	c6 56       	subi	r28, 0x66	; 102
    1bea:	df 4f       	sbci	r29, 0xFF	; 255
    1bec:	08 81       	ld	r16, Y
    1bee:	ca 59       	subi	r28, 0x9A	; 154
    1bf0:	d0 40       	sbci	r29, 0x00	; 0
    1bf2:	c5 56       	subi	r28, 0x65	; 101
    1bf4:	df 4f       	sbci	r29, 0xFF	; 255
    1bf6:	18 81       	ld	r17, Y
    1bf8:	cb 59       	subi	r28, 0x9B	; 155
    1bfa:	d0 40       	sbci	r29, 0x00	; 0
    1bfc:	22 e0       	ldi	r18, 0x02	; 2
    1bfe:	41 e0       	ldi	r20, 0x01	; 1
    1c00:	0e 94 67 1c 	call	0x38ce	; 0x38ce <dtostrf>
    1c04:	4f ef       	ldi	r20, 0xFF	; 255
    1c06:	80 e7       	ldi	r24, 0x70	; 112
    1c08:	92 e0       	ldi	r25, 0x02	; 2
    1c0a:	41 50       	subi	r20, 0x01	; 1
    1c0c:	80 40       	sbci	r24, 0x00	; 0
    1c0e:	90 40       	sbci	r25, 0x00	; 0
    1c10:	e1 f7       	brne	.-8      	; 0x1c0a <_Z10calculatorv+0x11e>
    1c12:	00 c0       	rjmp	.+0      	; 0x1c14 <_Z10calculatorv+0x128>
    1c14:	00 00       	nop
    1c16:	0e 94 2d 03 	call	0x65a	; 0x65a <_Z9LCD_Clearv>
    1c1a:	ef ef       	ldi	r30, 0xFF	; 255
    1c1c:	f0 e7       	ldi	r31, 0x70	; 112
    1c1e:	22 e0       	ldi	r18, 0x02	; 2
    1c20:	e1 50       	subi	r30, 0x01	; 1
    1c22:	f0 40       	sbci	r31, 0x00	; 0
    1c24:	20 40       	sbci	r18, 0x00	; 0
    1c26:	e1 f7       	brne	.-8      	; 0x1c20 <_Z10calculatorv+0x134>
    1c28:	00 c0       	rjmp	.+0      	; 0x1c2a <_Z10calculatorv+0x13e>
    1c2a:	00 00       	nop
    1c2c:	c6 56       	subi	r28, 0x66	; 102
    1c2e:	df 4f       	sbci	r29, 0xFF	; 255
    1c30:	48 81       	ld	r20, Y
    1c32:	ca 59       	subi	r28, 0x9A	; 154
    1c34:	d0 40       	sbci	r29, 0x00	; 0
    1c36:	c5 56       	subi	r28, 0x65	; 101
    1c38:	df 4f       	sbci	r29, 0xFF	; 255
    1c3a:	58 81       	ld	r21, Y
    1c3c:	cb 59       	subi	r28, 0x9B	; 155
    1c3e:	d0 40       	sbci	r29, 0x00	; 0
    1c40:	61 e0       	ldi	r22, 0x01	; 1
    1c42:	81 e0       	ldi	r24, 0x01	; 1
    1c44:	0e 94 b7 03 	call	0x76e	; 0x76e <_Z11DisplayTexthhPc>
    1c48:	b0 c0       	rjmp	.+352    	; 0x1daa <_Z10calculatorv+0x2be>
    1c4a:	f1 01       	movw	r30, r2
    1c4c:	ec 0d       	add	r30, r12
    1c4e:	fd 1d       	adc	r31, r13
    1c50:	80 83       	st	Z, r24
    1c52:	3f ef       	ldi	r19, 0xFF	; 255
    1c54:	c3 1a       	sub	r12, r19
    1c56:	d3 0a       	sbc	r13, r19
    1c58:	f1 01       	movw	r30, r2
    1c5a:	ec 0d       	add	r30, r12
    1c5c:	fd 1d       	adc	r31, r13
    1c5e:	10 82       	st	Z, r1
    1c60:	c6 56       	subi	r28, 0x66	; 102
    1c62:	df 4f       	sbci	r29, 0xFF	; 255
    1c64:	48 81       	ld	r20, Y
    1c66:	ca 59       	subi	r28, 0x9A	; 154
    1c68:	d0 40       	sbci	r29, 0x00	; 0
    1c6a:	c5 56       	subi	r28, 0x65	; 101
    1c6c:	df 4f       	sbci	r29, 0xFF	; 255
    1c6e:	58 81       	ld	r21, Y
    1c70:	cb 59       	subi	r28, 0x9B	; 155
    1c72:	d0 40       	sbci	r29, 0x00	; 0
    1c74:	68 2d       	mov	r22, r8
    1c76:	81 e0       	ldi	r24, 0x01	; 1
    1c78:	0e 94 b7 03 	call	0x76e	; 0x76e <_Z11DisplayTexthhPc>
    1c7c:	44 e1       	ldi	r20, 0x14	; 20
    1c7e:	c4 16       	cp	r12, r20
    1c80:	d1 04       	cpc	r13, r1
    1c82:	31 f4       	brne	.+12     	; 0x1c90 <_Z10calculatorv+0x1a4>
    1c84:	8c e0       	ldi	r24, 0x0C	; 12
    1c86:	88 0e       	add	r8, r24
    1c88:	91 1c       	adc	r9, r1
    1c8a:	19 82       	std	Y+1, r1	; 0x01
    1c8c:	c1 2c       	mov	r12, r1
    1c8e:	d1 2c       	mov	r13, r1
    1c90:	9f ef       	ldi	r25, 0xFF	; 255
    1c92:	e4 e3       	ldi	r30, 0x34	; 52
    1c94:	fc e0       	ldi	r31, 0x0C	; 12
    1c96:	91 50       	subi	r25, 0x01	; 1
    1c98:	e0 40       	sbci	r30, 0x00	; 0
    1c9a:	f0 40       	sbci	r31, 0x00	; 0
    1c9c:	e1 f7       	brne	.-8      	; 0x1c96 <_Z10calculatorv+0x1aa>
    1c9e:	00 c0       	rjmp	.+0      	; 0x1ca0 <_Z10calculatorv+0x1b4>
    1ca0:	00 00       	nop
    1ca2:	77 c0       	rjmp	.+238    	; 0x1d92 <_Z10calculatorv+0x2a6>
    1ca4:	89 b3       	in	r24, 0x19	; 25
    1ca6:	90 e0       	ldi	r25, 0x00	; 0
    1ca8:	00 2e       	mov	r0, r16
    1caa:	02 c0       	rjmp	.+4      	; 0x1cb0 <_Z10calculatorv+0x1c4>
    1cac:	95 95       	asr	r25
    1cae:	87 95       	ror	r24
    1cb0:	0a 94       	dec	r0
    1cb2:	e2 f7       	brpl	.-8      	; 0x1cac <_Z10calculatorv+0x1c0>
    1cb4:	80 ff       	sbrs	r24, 0
    1cb6:	6d c0       	rjmp	.+218    	; 0x1d92 <_Z10calculatorv+0x2a6>
    1cb8:	f3 01       	movw	r30, r6
    1cba:	80 81       	ld	r24, Z
    1cbc:	8c 33       	cpi	r24, 0x3C	; 60
    1cbe:	91 f5       	brne	.+100    	; 0x1d24 <_Z10calculatorv+0x238>
    1cc0:	c1 14       	cp	r12, r1
    1cc2:	d1 04       	cpc	r13, r1
    1cc4:	51 f4       	brne	.+20     	; 0x1cda <_Z10calculatorv+0x1ee>
    1cc6:	ff ef       	ldi	r31, 0xFF	; 255
    1cc8:	24 e3       	ldi	r18, 0x34	; 52
    1cca:	3c e0       	ldi	r19, 0x0C	; 12
    1ccc:	f1 50       	subi	r31, 0x01	; 1
    1cce:	20 40       	sbci	r18, 0x00	; 0
    1cd0:	30 40       	sbci	r19, 0x00	; 0
    1cd2:	e1 f7       	brne	.-8      	; 0x1ccc <_Z10calculatorv+0x1e0>
    1cd4:	00 c0       	rjmp	.+0      	; 0x1cd6 <_Z10calculatorv+0x1ea>
    1cd6:	00 00       	nop
    1cd8:	5c c0       	rjmp	.+184    	; 0x1d92 <_Z10calculatorv+0x2a6>
    1cda:	41 e0       	ldi	r20, 0x01	; 1
    1cdc:	c4 1a       	sub	r12, r20
    1cde:	d1 08       	sbc	r13, r1
    1ce0:	c1 01       	movw	r24, r2
    1ce2:	8c 0d       	add	r24, r12
    1ce4:	9d 1d       	adc	r25, r13
    1ce6:	c4 56       	subi	r28, 0x64	; 100
    1ce8:	df 4f       	sbci	r29, 0xFF	; 255
    1cea:	99 83       	std	Y+1, r25	; 0x01
    1cec:	88 83       	st	Y, r24
    1cee:	cc 59       	subi	r28, 0x9C	; 156
    1cf0:	d0 40       	sbci	r29, 0x00	; 0
    1cf2:	20 e2       	ldi	r18, 0x20	; 32
    1cf4:	fc 01       	movw	r30, r24
    1cf6:	20 83       	st	Z, r18
    1cf8:	c6 56       	subi	r28, 0x66	; 102
    1cfa:	df 4f       	sbci	r29, 0xFF	; 255
    1cfc:	48 81       	ld	r20, Y
    1cfe:	ca 59       	subi	r28, 0x9A	; 154
    1d00:	d0 40       	sbci	r29, 0x00	; 0
    1d02:	c5 56       	subi	r28, 0x65	; 101
    1d04:	df 4f       	sbci	r29, 0xFF	; 255
    1d06:	58 81       	ld	r21, Y
    1d08:	cb 59       	subi	r28, 0x9B	; 155
    1d0a:	d0 40       	sbci	r29, 0x00	; 0
    1d0c:	68 2d       	mov	r22, r8
    1d0e:	81 e0       	ldi	r24, 0x01	; 1
    1d10:	0e 94 b7 03 	call	0x76e	; 0x76e <_Z11DisplayTexthhPc>
    1d14:	c4 56       	subi	r28, 0x64	; 100
    1d16:	df 4f       	sbci	r29, 0xFF	; 255
    1d18:	e8 81       	ld	r30, Y
    1d1a:	f9 81       	ldd	r31, Y+1	; 0x01
    1d1c:	cc 59       	subi	r28, 0x9C	; 156
    1d1e:	d0 40       	sbci	r29, 0x00	; 0
    1d20:	10 82       	st	Z, r1
    1d22:	16 c0       	rjmp	.+44     	; 0x1d50 <_Z10calculatorv+0x264>
    1d24:	a3 01       	movw	r20, r6
    1d26:	b6 01       	movw	r22, r12
    1d28:	c6 56       	subi	r28, 0x66	; 102
    1d2a:	df 4f       	sbci	r29, 0xFF	; 255
    1d2c:	88 81       	ld	r24, Y
    1d2e:	ca 59       	subi	r28, 0x9A	; 154
    1d30:	d0 40       	sbci	r29, 0x00	; 0
    1d32:	c5 56       	subi	r28, 0x65	; 101
    1d34:	df 4f       	sbci	r29, 0xFF	; 255
    1d36:	98 81       	ld	r25, Y
    1d38:	cb 59       	subi	r28, 0x9B	; 155
    1d3a:	d0 40       	sbci	r29, 0x00	; 0
    1d3c:	0e 94 62 0d 	call	0x1ac4	; 0x1ac4 <_Z6appendPciS_>
    1d40:	f1 01       	movw	r30, r2
    1d42:	01 90       	ld	r0, Z+
    1d44:	00 20       	and	r0, r0
    1d46:	e9 f7       	brne	.-6      	; 0x1d42 <_Z10calculatorv+0x256>
    1d48:	31 97       	sbiw	r30, 0x01	; 1
    1d4a:	6f 01       	movw	r12, r30
    1d4c:	c2 18       	sub	r12, r2
    1d4e:	d3 08       	sbc	r13, r3
    1d50:	c6 56       	subi	r28, 0x66	; 102
    1d52:	df 4f       	sbci	r29, 0xFF	; 255
    1d54:	48 81       	ld	r20, Y
    1d56:	ca 59       	subi	r28, 0x9A	; 154
    1d58:	d0 40       	sbci	r29, 0x00	; 0
    1d5a:	c5 56       	subi	r28, 0x65	; 101
    1d5c:	df 4f       	sbci	r29, 0xFF	; 255
    1d5e:	58 81       	ld	r21, Y
    1d60:	cb 59       	subi	r28, 0x9B	; 155
    1d62:	d0 40       	sbci	r29, 0x00	; 0
    1d64:	68 2d       	mov	r22, r8
    1d66:	81 e0       	ldi	r24, 0x01	; 1
    1d68:	0e 94 b7 03 	call	0x76e	; 0x76e <_Z11DisplayTexthhPc>
    1d6c:	f4 e1       	ldi	r31, 0x14	; 20
    1d6e:	cf 16       	cp	r12, r31
    1d70:	d1 04       	cpc	r13, r1
    1d72:	31 f4       	brne	.+12     	; 0x1d80 <_Z10calculatorv+0x294>
    1d74:	2c e0       	ldi	r18, 0x0C	; 12
    1d76:	82 0e       	add	r8, r18
    1d78:	91 1c       	adc	r9, r1
    1d7a:	19 82       	std	Y+1, r1	; 0x01
    1d7c:	c1 2c       	mov	r12, r1
    1d7e:	d1 2c       	mov	r13, r1
    1d80:	3f ef       	ldi	r19, 0xFF	; 255
    1d82:	44 e3       	ldi	r20, 0x34	; 52
    1d84:	8c e0       	ldi	r24, 0x0C	; 12
    1d86:	31 50       	subi	r19, 0x01	; 1
    1d88:	40 40       	sbci	r20, 0x00	; 0
    1d8a:	80 40       	sbci	r24, 0x00	; 0
    1d8c:	e1 f7       	brne	.-8      	; 0x1d86 <_Z10calculatorv+0x29a>
    1d8e:	00 c0       	rjmp	.+0      	; 0x1d90 <_Z10calculatorv+0x2a4>
    1d90:	00 00       	nop
    1d92:	0f 5f       	subi	r16, 0xFF	; 255
    1d94:	1f 4f       	sbci	r17, 0xFF	; 255
    1d96:	98 e1       	ldi	r25, 0x18	; 24
    1d98:	69 0e       	add	r6, r25
    1d9a:	71 1c       	adc	r7, r1
    1d9c:	e4 e0       	ldi	r30, 0x04	; 4
    1d9e:	ae 0e       	add	r10, r30
    1da0:	b1 1c       	adc	r11, r1
    1da2:	04 30       	cpi	r16, 0x04	; 4
    1da4:	11 05       	cpc	r17, r1
    1da6:	09 f0       	breq	.+2      	; 0x1daa <_Z10calculatorv+0x2be>
    1da8:	dc ce       	rjmp	.-584    	; 0x1b62 <_Z10calculatorv+0x76>
    1daa:	8f e1       	ldi	r24, 0x1F	; 31
    1dac:	9e e4       	ldi	r25, 0x4E	; 78
    1dae:	01 97       	sbiw	r24, 0x01	; 1
    1db0:	f1 f7       	brne	.-4      	; 0x1dae <_Z10calculatorv+0x2c2>
    1db2:	00 c0       	rjmp	.+0      	; 0x1db4 <_Z10calculatorv+0x2c8>
    1db4:	00 00       	nop
    1db6:	9f ef       	ldi	r25, 0xFF	; 255
    1db8:	e9 1a       	sub	r14, r25
    1dba:	f9 0a       	sbc	r15, r25
    1dbc:	e6 e0       	ldi	r30, 0x06	; 6
    1dbe:	4e 0e       	add	r4, r30
    1dc0:	51 1c       	adc	r5, r1
    1dc2:	f8 e0       	ldi	r31, 0x08	; 8
    1dc4:	ef 16       	cp	r14, r31
    1dc6:	f1 04       	cpc	r15, r1
    1dc8:	09 f4       	brne	.+2      	; 0x1dcc <_Z10calculatorv+0x2e0>
    1dca:	b0 ce       	rjmp	.-672    	; 0x1b2c <_Z10calculatorv+0x40>
    1dcc:	b9 ce       	rjmp	.-654    	; 0x1b40 <_Z10calculatorv+0x54>

00001dce <_Z16int_number_inputi>:
    1dce:	df 92       	push	r13
    1dd0:	ef 92       	push	r14
    1dd2:	ff 92       	push	r15
    1dd4:	0f 93       	push	r16
    1dd6:	1f 93       	push	r17
    1dd8:	cf 93       	push	r28
    1dda:	df 93       	push	r29
    1ddc:	00 d0       	rcall	.+0      	; 0x1dde <_Z16int_number_inputi+0x10>
    1dde:	cd b7       	in	r28, 0x3d	; 61
    1de0:	de b7       	in	r29, 0x3e	; 62
    1de2:	a1 e0       	ldi	r26, 0x01	; 1
    1de4:	b0 e0       	ldi	r27, 0x00	; 0
    1de6:	44 e0       	ldi	r20, 0x04	; 4
    1de8:	50 e0       	ldi	r21, 0x00	; 0
    1dea:	9d 01       	movw	r18, r26
    1dec:	04 2e       	mov	r0, r20
    1dee:	02 c0       	rjmp	.+4      	; 0x1df4 <_Z16int_number_inputi+0x26>
    1df0:	22 0f       	add	r18, r18
    1df2:	33 1f       	adc	r19, r19
    1df4:	0a 94       	dec	r0
    1df6:	e2 f7       	brpl	.-8      	; 0x1df0 <_Z16int_number_inputi+0x22>
    1df8:	28 bb       	out	0x18, r18	; 24
    1dfa:	9a 01       	movw	r18, r20
    1dfc:	24 50       	subi	r18, 0x04	; 4
    1dfe:	31 09       	sbc	r19, r1
    1e00:	f9 01       	movw	r30, r18
    1e02:	ea 53       	subi	r30, 0x3A	; 58
    1e04:	ff 4f       	sbci	r31, 0xFF	; 255
    1e06:	00 e0       	ldi	r16, 0x00	; 0
    1e08:	10 e0       	ldi	r17, 0x00	; 0
    1e0a:	d2 2e       	mov	r13, r18
    1e0c:	73 2f       	mov	r23, r19
    1e0e:	26 b3       	in	r18, 0x16	; 22
    1e10:	30 e0       	ldi	r19, 0x00	; 0
    1e12:	00 2e       	mov	r0, r16
    1e14:	02 c0       	rjmp	.+4      	; 0x1e1a <_Z16int_number_inputi+0x4c>
    1e16:	35 95       	asr	r19
    1e18:	27 95       	ror	r18
    1e1a:	0a 94       	dec	r0
    1e1c:	e2 f7       	brpl	.-8      	; 0x1e16 <_Z16int_number_inputi+0x48>
    1e1e:	20 ff       	sbrs	r18, 0
    1e20:	2f c0       	rjmp	.+94     	; 0x1e80 <_Z16int_number_inputi+0xb2>
    1e22:	ed 2c       	mov	r14, r13
    1e24:	f7 2e       	mov	r15, r23
    1e26:	90 81       	ld	r25, Z
    1e28:	2f ec       	ldi	r18, 0xCF	; 207
    1e2a:	29 0f       	add	r18, r25
    1e2c:	27 30       	cpi	r18, 0x07	; 7
    1e2e:	f8 f4       	brcc	.+62     	; 0x1e6e <_Z16int_number_inputi+0xa0>
    1e30:	99 83       	std	Y+1, r25	; 0x01
    1e32:	1a 82       	std	Y+2, r1	; 0x02
    1e34:	ae 01       	movw	r20, r28
    1e36:	4f 5f       	subi	r20, 0xFF	; 255
    1e38:	5f 4f       	sbci	r21, 0xFF	; 255
    1e3a:	68 2f       	mov	r22, r24
    1e3c:	81 e0       	ldi	r24, 0x01	; 1
    1e3e:	0e 94 b7 03 	call	0x76e	; 0x76e <_Z11DisplayTexthhPc>
    1e42:	2f ef       	ldi	r18, 0xFF	; 255
    1e44:	34 e3       	ldi	r19, 0x34	; 52
    1e46:	8c e0       	ldi	r24, 0x0C	; 12
    1e48:	21 50       	subi	r18, 0x01	; 1
    1e4a:	30 40       	sbci	r19, 0x00	; 0
    1e4c:	80 40       	sbci	r24, 0x00	; 0
    1e4e:	e1 f7       	brne	.-8      	; 0x1e48 <_Z16int_number_inputi+0x7a>
    1e50:	00 c0       	rjmp	.+0      	; 0x1e52 <_Z16int_number_inputi+0x84>
    1e52:	00 00       	nop
    1e54:	00 0f       	add	r16, r16
    1e56:	11 1f       	adc	r17, r17
    1e58:	00 0f       	add	r16, r16
    1e5a:	11 1f       	adc	r17, r17
    1e5c:	0a 53       	subi	r16, 0x3A	; 58
    1e5e:	1f 4f       	sbci	r17, 0xFF	; 255
    1e60:	f8 01       	movw	r30, r16
    1e62:	ee 0d       	add	r30, r14
    1e64:	ff 1d       	adc	r31, r15
    1e66:	80 81       	ld	r24, Z
    1e68:	90 e0       	ldi	r25, 0x00	; 0
    1e6a:	c0 97       	sbiw	r24, 0x30	; 48
    1e6c:	1c c0       	rjmp	.+56     	; 0x1ea6 <_Z16int_number_inputi+0xd8>
    1e6e:	9f ef       	ldi	r25, 0xFF	; 255
    1e70:	24 e3       	ldi	r18, 0x34	; 52
    1e72:	3c e0       	ldi	r19, 0x0C	; 12
    1e74:	91 50       	subi	r25, 0x01	; 1
    1e76:	20 40       	sbci	r18, 0x00	; 0
    1e78:	30 40       	sbci	r19, 0x00	; 0
    1e7a:	e1 f7       	brne	.-8      	; 0x1e74 <_Z16int_number_inputi+0xa6>
    1e7c:	00 c0       	rjmp	.+0      	; 0x1e7e <_Z16int_number_inputi+0xb0>
    1e7e:	00 00       	nop
    1e80:	0f 5f       	subi	r16, 0xFF	; 255
    1e82:	1f 4f       	sbci	r17, 0xFF	; 255
    1e84:	34 96       	adiw	r30, 0x04	; 4
    1e86:	04 30       	cpi	r16, 0x04	; 4
    1e88:	11 05       	cpc	r17, r1
    1e8a:	09 f6       	brne	.-126    	; 0x1e0e <_Z16int_number_inputi+0x40>
    1e8c:	ef e1       	ldi	r30, 0x1F	; 31
    1e8e:	fe e4       	ldi	r31, 0x4E	; 78
    1e90:	31 97       	sbiw	r30, 0x01	; 1
    1e92:	f1 f7       	brne	.-4      	; 0x1e90 <_Z16int_number_inputi+0xc2>
    1e94:	00 c0       	rjmp	.+0      	; 0x1e96 <_Z16int_number_inputi+0xc8>
    1e96:	00 00       	nop
    1e98:	4f 5f       	subi	r20, 0xFF	; 255
    1e9a:	5f 4f       	sbci	r21, 0xFF	; 255
    1e9c:	48 30       	cpi	r20, 0x08	; 8
    1e9e:	51 05       	cpc	r21, r1
    1ea0:	09 f0       	breq	.+2      	; 0x1ea4 <_Z16int_number_inputi+0xd6>
    1ea2:	a3 cf       	rjmp	.-186    	; 0x1dea <_Z16int_number_inputi+0x1c>
    1ea4:	a0 cf       	rjmp	.-192    	; 0x1de6 <_Z16int_number_inputi+0x18>
    1ea6:	0f 90       	pop	r0
    1ea8:	0f 90       	pop	r0
    1eaa:	df 91       	pop	r29
    1eac:	cf 91       	pop	r28
    1eae:	1f 91       	pop	r17
    1eb0:	0f 91       	pop	r16
    1eb2:	ff 90       	pop	r15
    1eb4:	ef 90       	pop	r14
    1eb6:	df 90       	pop	r13
    1eb8:	08 95       	ret

00001eba <_Z16string_to_doublePci>:
    1eba:	6f 92       	push	r6
    1ebc:	7f 92       	push	r7
    1ebe:	8f 92       	push	r8
    1ec0:	9f 92       	push	r9
    1ec2:	af 92       	push	r10
    1ec4:	bf 92       	push	r11
    1ec6:	cf 92       	push	r12
    1ec8:	df 92       	push	r13
    1eca:	ef 92       	push	r14
    1ecc:	ff 92       	push	r15
    1ece:	0f 93       	push	r16
    1ed0:	1f 93       	push	r17
    1ed2:	cf 93       	push	r28
    1ed4:	df 93       	push	r29
    1ed6:	16 16       	cp	r1, r22
    1ed8:	17 06       	cpc	r1, r23
    1eda:	0c f0       	brlt	.+2      	; 0x1ede <_Z16string_to_doublePci+0x24>
    1edc:	52 c0       	rjmp	.+164    	; 0x1f82 <_Z16string_to_doublePci+0xc8>
    1ede:	7c 01       	movw	r14, r24
    1ee0:	ec 01       	movw	r28, r24
    1ee2:	e6 0e       	add	r14, r22
    1ee4:	f7 1e       	adc	r15, r23
    1ee6:	71 2c       	mov	r7, r1
    1ee8:	01 e0       	ldi	r16, 0x01	; 1
    1eea:	10 e0       	ldi	r17, 0x00	; 0
    1eec:	d1 2c       	mov	r13, r1
    1eee:	81 2c       	mov	r8, r1
    1ef0:	91 2c       	mov	r9, r1
    1ef2:	54 01       	movw	r10, r8
    1ef4:	cc 24       	eor	r12, r12
    1ef6:	c3 94       	inc	r12
    1ef8:	69 90       	ld	r6, Y+
    1efa:	8d e2       	ldi	r24, 0x2D	; 45
    1efc:	68 16       	cp	r6, r24
    1efe:	59 f1       	breq	.+86     	; 0x1f56 <_Z16string_to_doublePci+0x9c>
    1f00:	8e e2       	ldi	r24, 0x2E	; 46
    1f02:	68 16       	cp	r6, r24
    1f04:	51 f1       	breq	.+84     	; 0x1f5a <_Z16string_to_doublePci+0xa0>
    1f06:	20 e0       	ldi	r18, 0x00	; 0
    1f08:	30 e0       	ldi	r19, 0x00	; 0
    1f0a:	40 e2       	ldi	r20, 0x20	; 32
    1f0c:	51 e4       	ldi	r21, 0x41	; 65
    1f0e:	c5 01       	movw	r24, r10
    1f10:	b4 01       	movw	r22, r8
    1f12:	0e 94 ae 1a 	call	0x355c	; 0x355c <__mulsf3>
    1f16:	4b 01       	movw	r8, r22
    1f18:	5c 01       	movw	r10, r24
    1f1a:	66 2d       	mov	r22, r6
    1f1c:	70 e0       	ldi	r23, 0x00	; 0
    1f1e:	60 53       	subi	r22, 0x30	; 48
    1f20:	71 09       	sbc	r23, r1
    1f22:	07 2e       	mov	r0, r23
    1f24:	00 0c       	add	r0, r0
    1f26:	88 0b       	sbc	r24, r24
    1f28:	99 0b       	sbc	r25, r25
    1f2a:	0e 94 39 18 	call	0x3072	; 0x3072 <__floatsisf>
    1f2e:	a5 01       	movw	r20, r10
    1f30:	94 01       	movw	r18, r8
    1f32:	0e 94 7e 16 	call	0x2cfc	; 0x2cfc <__addsf3>
    1f36:	4b 01       	movw	r8, r22
    1f38:	5c 01       	movw	r10, r24
    1f3a:	dd 20       	and	r13, r13
    1f3c:	79 f0       	breq	.+30     	; 0x1f5c <_Z16string_to_doublePci+0xa2>
    1f3e:	c8 01       	movw	r24, r16
    1f40:	88 0f       	add	r24, r24
    1f42:	99 1f       	adc	r25, r25
    1f44:	00 0f       	add	r16, r16
    1f46:	11 1f       	adc	r17, r17
    1f48:	00 0f       	add	r16, r16
    1f4a:	11 1f       	adc	r17, r17
    1f4c:	00 0f       	add	r16, r16
    1f4e:	11 1f       	adc	r17, r17
    1f50:	08 0f       	add	r16, r24
    1f52:	19 1f       	adc	r17, r25
    1f54:	03 c0       	rjmp	.+6      	; 0x1f5c <_Z16string_to_doublePci+0xa2>
    1f56:	7c 2c       	mov	r7, r12
    1f58:	01 c0       	rjmp	.+2      	; 0x1f5c <_Z16string_to_doublePci+0xa2>
    1f5a:	dc 2c       	mov	r13, r12
    1f5c:	ec 16       	cp	r14, r28
    1f5e:	fd 06       	cpc	r15, r29
    1f60:	59 f6       	brne	.-106    	; 0x1ef8 <_Z16string_to_doublePci+0x3e>
    1f62:	b8 01       	movw	r22, r16
    1f64:	11 0f       	add	r17, r17
    1f66:	88 0b       	sbc	r24, r24
    1f68:	99 0b       	sbc	r25, r25
    1f6a:	0e 94 39 18 	call	0x3072	; 0x3072 <__floatsisf>
    1f6e:	9b 01       	movw	r18, r22
    1f70:	ac 01       	movw	r20, r24
    1f72:	c5 01       	movw	r24, r10
    1f74:	b4 01       	movw	r22, r8
    1f76:	0e 94 55 17 	call	0x2eaa	; 0x2eaa <__divsf3>
    1f7a:	77 20       	and	r7, r7
    1f7c:	29 f0       	breq	.+10     	; 0x1f88 <_Z16string_to_doublePci+0xce>
    1f7e:	90 58       	subi	r25, 0x80	; 128
    1f80:	03 c0       	rjmp	.+6      	; 0x1f88 <_Z16string_to_doublePci+0xce>
    1f82:	60 e0       	ldi	r22, 0x00	; 0
    1f84:	70 e0       	ldi	r23, 0x00	; 0
    1f86:	cb 01       	movw	r24, r22
    1f88:	df 91       	pop	r29
    1f8a:	cf 91       	pop	r28
    1f8c:	1f 91       	pop	r17
    1f8e:	0f 91       	pop	r16
    1f90:	ff 90       	pop	r15
    1f92:	ef 90       	pop	r14
    1f94:	df 90       	pop	r13
    1f96:	cf 90       	pop	r12
    1f98:	bf 90       	pop	r11
    1f9a:	af 90       	pop	r10
    1f9c:	9f 90       	pop	r9
    1f9e:	8f 90       	pop	r8
    1fa0:	7f 90       	pop	r7
    1fa2:	6f 90       	pop	r6
    1fa4:	08 95       	ret

00001fa6 <_Z16double_num_inputi>:
    1fa6:	2f 92       	push	r2
    1fa8:	3f 92       	push	r3
    1faa:	4f 92       	push	r4
    1fac:	5f 92       	push	r5
    1fae:	6f 92       	push	r6
    1fb0:	7f 92       	push	r7
    1fb2:	8f 92       	push	r8
    1fb4:	9f 92       	push	r9
    1fb6:	af 92       	push	r10
    1fb8:	bf 92       	push	r11
    1fba:	cf 92       	push	r12
    1fbc:	df 92       	push	r13
    1fbe:	ef 92       	push	r14
    1fc0:	ff 92       	push	r15
    1fc2:	0f 93       	push	r16
    1fc4:	1f 93       	push	r17
    1fc6:	cf 93       	push	r28
    1fc8:	df 93       	push	r29
    1fca:	cd b7       	in	r28, 0x3d	; 61
    1fcc:	de b7       	in	r29, 0x3e	; 62
    1fce:	60 97       	sbiw	r28, 0x10	; 16
    1fd0:	0f b6       	in	r0, 0x3f	; 63
    1fd2:	f8 94       	cli
    1fd4:	de bf       	out	0x3e, r29	; 62
    1fd6:	0f be       	out	0x3f, r0	; 63
    1fd8:	cd bf       	out	0x3d, r28	; 61
    1fda:	8b 87       	std	Y+11, r24	; 0x0b
    1fdc:	18 8a       	std	Y+16, r1	; 0x10
    1fde:	a1 2c       	mov	r10, r1
    1fe0:	b1 2c       	mov	r11, r1
    1fe2:	88 24       	eor	r8, r8
    1fe4:	83 94       	inc	r8
    1fe6:	91 2c       	mov	r9, r1
    1fe8:	ce 01       	movw	r24, r28
    1fea:	01 96       	adiw	r24, 0x01	; 1
    1fec:	2c 01       	movw	r4, r24
    1fee:	8c 87       	std	Y+12, r24	; 0x0c
    1ff0:	5d 86       	std	Y+13, r5	; 0x0d
    1ff2:	0f 2e       	mov	r0, r31
    1ff4:	f6 e6       	ldi	r31, 0x66	; 102
    1ff6:	2f 2e       	mov	r2, r31
    1ff8:	f0 e0       	ldi	r31, 0x00	; 0
    1ffa:	3f 2e       	mov	r3, r31
    1ffc:	f0 2d       	mov	r31, r0
    1ffe:	68 94       	set
    2000:	66 24       	eor	r6, r6
    2002:	62 f8       	bld	r6, 2
    2004:	71 2c       	mov	r7, r1
    2006:	c4 01       	movw	r24, r8
    2008:	06 2c       	mov	r0, r6
    200a:	02 c0       	rjmp	.+4      	; 0x2010 <_Z16double_num_inputi+0x6a>
    200c:	88 0f       	add	r24, r24
    200e:	99 1f       	adc	r25, r25
    2010:	0a 94       	dec	r0
    2012:	e2 f7       	brpl	.-8      	; 0x200c <_Z16double_num_inputi+0x66>
    2014:	88 bb       	out	0x18, r24	; 24
    2016:	8b bb       	out	0x1b, r24	; 27
    2018:	f3 01       	movw	r30, r6
    201a:	ee 53       	subi	r30, 0x3E	; 62
    201c:	ff 4f       	sbci	r31, 0xFF	; 255
    201e:	7f 01       	movw	r14, r30
    2020:	61 01       	movw	r12, r2
    2022:	00 e0       	ldi	r16, 0x00	; 0
    2024:	10 e0       	ldi	r17, 0x00	; 0
    2026:	86 b3       	in	r24, 0x16	; 22
    2028:	90 e0       	ldi	r25, 0x00	; 0
    202a:	00 2e       	mov	r0, r16
    202c:	02 c0       	rjmp	.+4      	; 0x2032 <_Z16double_num_inputi+0x8c>
    202e:	95 95       	asr	r25
    2030:	87 95       	ror	r24
    2032:	0a 94       	dec	r0
    2034:	e2 f7       	brpl	.-8      	; 0x202e <_Z16double_num_inputi+0x88>
    2036:	80 ff       	sbrs	r24, 0
    2038:	36 c0       	rjmp	.+108    	; 0x20a6 <_Z16double_num_inputi+0x100>
    203a:	f7 01       	movw	r30, r14
    203c:	80 81       	ld	r24, Z
    203e:	90 ed       	ldi	r25, 0xD0	; 208
    2040:	98 0f       	add	r25, r24
    2042:	9a 30       	cpi	r25, 0x0A	; 10
    2044:	90 f4       	brcc	.+36     	; 0x206a <_Z16double_num_inputi+0xc4>
    2046:	f2 01       	movw	r30, r4
    2048:	ea 0d       	add	r30, r10
    204a:	fb 1d       	adc	r31, r11
    204c:	80 83       	st	Z, r24
    204e:	ff ef       	ldi	r31, 0xFF	; 255
    2050:	af 1a       	sub	r10, r31
    2052:	bf 0a       	sbc	r11, r31
    2054:	f2 01       	movw	r30, r4
    2056:	ea 0d       	add	r30, r10
    2058:	fb 1d       	adc	r31, r11
    205a:	10 82       	st	Z, r1
    205c:	4c 85       	ldd	r20, Y+12	; 0x0c
    205e:	5d 85       	ldd	r21, Y+13	; 0x0d
    2060:	6b 85       	ldd	r22, Y+11	; 0x0b
    2062:	81 e0       	ldi	r24, 0x01	; 1
    2064:	0e 94 b7 03 	call	0x76e	; 0x76e <_Z11DisplayTexthhPc>
    2068:	14 c0       	rjmp	.+40     	; 0x2092 <_Z16double_num_inputi+0xec>
    206a:	8d 33       	cpi	r24, 0x3D	; 61
    206c:	09 f4       	brne	.+2      	; 0x2070 <_Z16double_num_inputi+0xca>
    206e:	8e c0       	rjmp	.+284    	; 0x218c <_Z16double_num_inputi+0x1e6>
    2070:	a1 14       	cp	r10, r1
    2072:	b1 04       	cpc	r11, r1
    2074:	71 f4       	brne	.+28     	; 0x2092 <_Z16double_num_inputi+0xec>
    2076:	8d 32       	cpi	r24, 0x2D	; 45
    2078:	61 f4       	brne	.+24     	; 0x2092 <_Z16double_num_inputi+0xec>
    207a:	2d e2       	ldi	r18, 0x2D	; 45
    207c:	29 83       	std	Y+1, r18	; 0x01
    207e:	1a 82       	std	Y+2, r1	; 0x02
    2080:	4c 85       	ldd	r20, Y+12	; 0x0c
    2082:	5d 85       	ldd	r21, Y+13	; 0x0d
    2084:	6b 85       	ldd	r22, Y+11	; 0x0b
    2086:	81 e0       	ldi	r24, 0x01	; 1
    2088:	0e 94 b7 03 	call	0x76e	; 0x76e <_Z11DisplayTexthhPc>
    208c:	aa 24       	eor	r10, r10
    208e:	a3 94       	inc	r10
    2090:	b1 2c       	mov	r11, r1
    2092:	8f ef       	ldi	r24, 0xFF	; 255
    2094:	94 e3       	ldi	r25, 0x34	; 52
    2096:	ec e0       	ldi	r30, 0x0C	; 12
    2098:	81 50       	subi	r24, 0x01	; 1
    209a:	90 40       	sbci	r25, 0x00	; 0
    209c:	e0 40       	sbci	r30, 0x00	; 0
    209e:	e1 f7       	brne	.-8      	; 0x2098 <_Z16double_num_inputi+0xf2>
    20a0:	00 c0       	rjmp	.+0      	; 0x20a2 <_Z16double_num_inputi+0xfc>
    20a2:	00 00       	nop
    20a4:	51 c0       	rjmp	.+162    	; 0x2148 <_Z16double_num_inputi+0x1a2>
    20a6:	89 b3       	in	r24, 0x19	; 25
    20a8:	90 e0       	ldi	r25, 0x00	; 0
    20aa:	00 2e       	mov	r0, r16
    20ac:	02 c0       	rjmp	.+4      	; 0x20b2 <_Z16double_num_inputi+0x10c>
    20ae:	95 95       	asr	r25
    20b0:	87 95       	ror	r24
    20b2:	0a 94       	dec	r0
    20b4:	e2 f7       	brpl	.-8      	; 0x20ae <_Z16double_num_inputi+0x108>
    20b6:	80 ff       	sbrs	r24, 0
    20b8:	47 c0       	rjmp	.+142    	; 0x2148 <_Z16double_num_inputi+0x1a2>
    20ba:	f6 01       	movw	r30, r12
    20bc:	80 81       	ld	r24, Z
    20be:	8c 33       	cpi	r24, 0x3C	; 60
    20c0:	09 f5       	brne	.+66     	; 0x2104 <_Z16double_num_inputi+0x15e>
    20c2:	a1 14       	cp	r10, r1
    20c4:	b1 04       	cpc	r11, r1
    20c6:	51 f4       	brne	.+20     	; 0x20dc <_Z16double_num_inputi+0x136>
    20c8:	ff ef       	ldi	r31, 0xFF	; 255
    20ca:	24 e3       	ldi	r18, 0x34	; 52
    20cc:	8c e0       	ldi	r24, 0x0C	; 12
    20ce:	f1 50       	subi	r31, 0x01	; 1
    20d0:	20 40       	sbci	r18, 0x00	; 0
    20d2:	80 40       	sbci	r24, 0x00	; 0
    20d4:	e1 f7       	brne	.-8      	; 0x20ce <_Z16double_num_inputi+0x128>
    20d6:	00 c0       	rjmp	.+0      	; 0x20d8 <_Z16double_num_inputi+0x132>
    20d8:	00 00       	nop
    20da:	3a c0       	rjmp	.+116    	; 0x2150 <_Z16double_num_inputi+0x1aa>
    20dc:	91 e0       	ldi	r25, 0x01	; 1
    20de:	a9 1a       	sub	r10, r25
    20e0:	b1 08       	sbc	r11, r1
    20e2:	f2 01       	movw	r30, r4
    20e4:	ea 0d       	add	r30, r10
    20e6:	fb 1d       	adc	r31, r11
    20e8:	ff 87       	std	Y+15, r31	; 0x0f
    20ea:	ee 87       	std	Y+14, r30	; 0x0e
    20ec:	20 e2       	ldi	r18, 0x20	; 32
    20ee:	20 83       	st	Z, r18
    20f0:	4c 85       	ldd	r20, Y+12	; 0x0c
    20f2:	5d 85       	ldd	r21, Y+13	; 0x0d
    20f4:	6b 85       	ldd	r22, Y+11	; 0x0b
    20f6:	81 e0       	ldi	r24, 0x01	; 1
    20f8:	0e 94 b7 03 	call	0x76e	; 0x76e <_Z11DisplayTexthhPc>
    20fc:	ee 85       	ldd	r30, Y+14	; 0x0e
    20fe:	ff 85       	ldd	r31, Y+15	; 0x0f
    2100:	10 82       	st	Z, r1
    2102:	19 c0       	rjmp	.+50     	; 0x2136 <_Z16double_num_inputi+0x190>
    2104:	8e 32       	cpi	r24, 0x2E	; 46
    2106:	b9 f4       	brne	.+46     	; 0x2136 <_Z16double_num_inputi+0x190>
    2108:	f8 89       	ldd	r31, Y+16	; 0x10
    210a:	f1 11       	cpse	r31, r1
    210c:	14 c0       	rjmp	.+40     	; 0x2136 <_Z16double_num_inputi+0x190>
    210e:	f2 01       	movw	r30, r4
    2110:	ea 0d       	add	r30, r10
    2112:	fb 1d       	adc	r31, r11
    2114:	2e e2       	ldi	r18, 0x2E	; 46
    2116:	20 83       	st	Z, r18
    2118:	8f ef       	ldi	r24, 0xFF	; 255
    211a:	a8 1a       	sub	r10, r24
    211c:	b8 0a       	sbc	r11, r24
    211e:	f2 01       	movw	r30, r4
    2120:	ea 0d       	add	r30, r10
    2122:	fb 1d       	adc	r31, r11
    2124:	10 82       	st	Z, r1
    2126:	4c 85       	ldd	r20, Y+12	; 0x0c
    2128:	5d 85       	ldd	r21, Y+13	; 0x0d
    212a:	6b 85       	ldd	r22, Y+11	; 0x0b
    212c:	81 e0       	ldi	r24, 0x01	; 1
    212e:	0e 94 b7 03 	call	0x76e	; 0x76e <_Z11DisplayTexthhPc>
    2132:	91 e0       	ldi	r25, 0x01	; 1
    2134:	98 8b       	std	Y+16, r25	; 0x10
    2136:	ef ef       	ldi	r30, 0xFF	; 255
    2138:	f4 e3       	ldi	r31, 0x34	; 52
    213a:	2c e0       	ldi	r18, 0x0C	; 12
    213c:	e1 50       	subi	r30, 0x01	; 1
    213e:	f0 40       	sbci	r31, 0x00	; 0
    2140:	20 40       	sbci	r18, 0x00	; 0
    2142:	e1 f7       	brne	.-8      	; 0x213c <_Z16double_num_inputi+0x196>
    2144:	00 c0       	rjmp	.+0      	; 0x2146 <_Z16double_num_inputi+0x1a0>
    2146:	00 00       	nop
    2148:	89 e0       	ldi	r24, 0x09	; 9
    214a:	a8 16       	cp	r10, r24
    214c:	b1 04       	cpc	r11, r1
    214e:	f1 f0       	breq	.+60     	; 0x218c <_Z16double_num_inputi+0x1e6>
    2150:	0f 5f       	subi	r16, 0xFF	; 255
    2152:	1f 4f       	sbci	r17, 0xFF	; 255
    2154:	98 e1       	ldi	r25, 0x18	; 24
    2156:	c9 0e       	add	r12, r25
    2158:	d1 1c       	adc	r13, r1
    215a:	e4 e0       	ldi	r30, 0x04	; 4
    215c:	ee 0e       	add	r14, r30
    215e:	f1 1c       	adc	r15, r1
    2160:	04 30       	cpi	r16, 0x04	; 4
    2162:	11 05       	cpc	r17, r1
    2164:	09 f0       	breq	.+2      	; 0x2168 <_Z16double_num_inputi+0x1c2>
    2166:	5f cf       	rjmp	.-322    	; 0x2026 <_Z16double_num_inputi+0x80>
    2168:	8f e1       	ldi	r24, 0x1F	; 31
    216a:	9e e4       	ldi	r25, 0x4E	; 78
    216c:	01 97       	sbiw	r24, 0x01	; 1
    216e:	f1 f7       	brne	.-4      	; 0x216c <_Z16double_num_inputi+0x1c6>
    2170:	00 c0       	rjmp	.+0      	; 0x2172 <_Z16double_num_inputi+0x1cc>
    2172:	00 00       	nop
    2174:	9f ef       	ldi	r25, 0xFF	; 255
    2176:	69 1a       	sub	r6, r25
    2178:	79 0a       	sbc	r7, r25
    217a:	e6 e0       	ldi	r30, 0x06	; 6
    217c:	2e 0e       	add	r2, r30
    217e:	31 1c       	adc	r3, r1
    2180:	f8 e0       	ldi	r31, 0x08	; 8
    2182:	6f 16       	cp	r6, r31
    2184:	71 04       	cpc	r7, r1
    2186:	09 f0       	breq	.+2      	; 0x218a <_Z16double_num_inputi+0x1e4>
    2188:	3e cf       	rjmp	.-388    	; 0x2006 <_Z16double_num_inputi+0x60>
    218a:	33 cf       	rjmp	.-410    	; 0x1ff2 <_Z16double_num_inputi+0x4c>
    218c:	8f e1       	ldi	r24, 0x1F	; 31
    218e:	9e e4       	ldi	r25, 0x4E	; 78
    2190:	01 97       	sbiw	r24, 0x01	; 1
    2192:	f1 f7       	brne	.-4      	; 0x2190 <_Z16double_num_inputi+0x1ea>
    2194:	00 c0       	rjmp	.+0      	; 0x2196 <_Z16double_num_inputi+0x1f0>
    2196:	00 00       	nop
    2198:	b5 01       	movw	r22, r10
    219a:	ce 01       	movw	r24, r28
    219c:	01 96       	adiw	r24, 0x01	; 1
    219e:	0e 94 5d 0f 	call	0x1eba	; 0x1eba <_Z16string_to_doublePci>
    21a2:	60 96       	adiw	r28, 0x10	; 16
    21a4:	0f b6       	in	r0, 0x3f	; 63
    21a6:	f8 94       	cli
    21a8:	de bf       	out	0x3e, r29	; 62
    21aa:	0f be       	out	0x3f, r0	; 63
    21ac:	cd bf       	out	0x3d, r28	; 61
    21ae:	df 91       	pop	r29
    21b0:	cf 91       	pop	r28
    21b2:	1f 91       	pop	r17
    21b4:	0f 91       	pop	r16
    21b6:	ff 90       	pop	r15
    21b8:	ef 90       	pop	r14
    21ba:	df 90       	pop	r13
    21bc:	cf 90       	pop	r12
    21be:	bf 90       	pop	r11
    21c0:	af 90       	pop	r10
    21c2:	9f 90       	pop	r9
    21c4:	8f 90       	pop	r8
    21c6:	7f 90       	pop	r7
    21c8:	6f 90       	pop	r6
    21ca:	5f 90       	pop	r5
    21cc:	4f 90       	pop	r4
    21ce:	3f 90       	pop	r3
    21d0:	2f 90       	pop	r2
    21d2:	08 95       	ret

000021d4 <_Z9show_textPci>:
    21d4:	cf 92       	push	r12
    21d6:	df 92       	push	r13
    21d8:	ef 92       	push	r14
    21da:	ff 92       	push	r15
    21dc:	0f 93       	push	r16
    21de:	1f 93       	push	r17
    21e0:	cf 93       	push	r28
    21e2:	df 93       	push	r29
    21e4:	cd b7       	in	r28, 0x3d	; 61
    21e6:	de b7       	in	r29, 0x3e	; 62
    21e8:	65 97       	sbiw	r28, 0x15	; 21
    21ea:	0f b6       	in	r0, 0x3f	; 63
    21ec:	f8 94       	cli
    21ee:	de bf       	out	0x3e, r29	; 62
    21f0:	0f be       	out	0x3f, r0	; 63
    21f2:	cd bf       	out	0x3d, r28	; 61
    21f4:	6c 01       	movw	r12, r24
    21f6:	7b 01       	movw	r14, r22
    21f8:	61 30       	cpi	r22, 0x01	; 1
    21fa:	71 05       	cpc	r23, r1
    21fc:	11 f4       	brne	.+4      	; 0x2202 <_Z9show_textPci+0x2e>
    21fe:	0e 94 2d 03 	call	0x65a	; 0x65a <_Z9LCD_Clearv>
    2202:	f6 01       	movw	r30, r12
    2204:	01 90       	ld	r0, Z+
    2206:	00 20       	and	r0, r0
    2208:	e9 f7       	brne	.-6      	; 0x2204 <_Z9show_textPci+0x30>
    220a:	31 97       	sbiw	r30, 0x01	; 1
    220c:	ec 19       	sub	r30, r12
    220e:	fd 09       	sbc	r31, r13
    2210:	1e 16       	cp	r1, r30
    2212:	1f 06       	cpc	r1, r31
    2214:	94 f1       	brlt	.+100    	; 0x227a <_Z9show_textPci+0xa6>
    2216:	3a c0       	rjmp	.+116    	; 0x228c <_Z9show_textPci+0xb8>
    2218:	d8 01       	movw	r26, r16
    221a:	9d 91       	ld	r25, X+
    221c:	8d 01       	movw	r16, r26
    221e:	e1 e0       	ldi	r30, 0x01	; 1
    2220:	f0 e0       	ldi	r31, 0x00	; 0
    2222:	ec 0f       	add	r30, r28
    2224:	fd 1f       	adc	r31, r29
    2226:	e2 0f       	add	r30, r18
    2228:	f3 1f       	adc	r31, r19
    222a:	90 83       	st	Z, r25
    222c:	2f 5f       	subi	r18, 0xFF	; 255
    222e:	3f 4f       	sbci	r19, 0xFF	; 255
    2230:	24 31       	cpi	r18, 0x14	; 20
    2232:	31 05       	cpc	r19, r1
    2234:	69 f4       	brne	.+26     	; 0x2250 <_Z9show_textPci+0x7c>
    2236:	1d 8a       	std	Y+21, r1	; 0x15
    2238:	ae 01       	movw	r20, r28
    223a:	4f 5f       	subi	r20, 0xFF	; 255
    223c:	5f 4f       	sbci	r21, 0xFF	; 255
    223e:	6e 2d       	mov	r22, r14
    2240:	81 e0       	ldi	r24, 0x01	; 1
    2242:	0e 94 b7 03 	call	0x76e	; 0x76e <_Z11DisplayTexthhPc>
    2246:	bc e0       	ldi	r27, 0x0C	; 12
    2248:	eb 0e       	add	r14, r27
    224a:	f1 1c       	adc	r15, r1
    224c:	20 e0       	ldi	r18, 0x00	; 0
    224e:	30 e0       	ldi	r19, 0x00	; 0
    2250:	c0 16       	cp	r12, r16
    2252:	d1 06       	cpc	r13, r17
    2254:	09 f7       	brne	.-62     	; 0x2218 <_Z9show_textPci+0x44>
    2256:	21 15       	cp	r18, r1
    2258:	31 05       	cpc	r19, r1
    225a:	c1 f0       	breq	.+48     	; 0x228c <_Z9show_textPci+0xb8>
    225c:	e1 e0       	ldi	r30, 0x01	; 1
    225e:	f0 e0       	ldi	r31, 0x00	; 0
    2260:	ec 0f       	add	r30, r28
    2262:	fd 1f       	adc	r31, r29
    2264:	e2 0f       	add	r30, r18
    2266:	f3 1f       	adc	r31, r19
    2268:	10 82       	st	Z, r1
    226a:	ae 01       	movw	r20, r28
    226c:	4f 5f       	subi	r20, 0xFF	; 255
    226e:	5f 4f       	sbci	r21, 0xFF	; 255
    2270:	6e 2d       	mov	r22, r14
    2272:	81 e0       	ldi	r24, 0x01	; 1
    2274:	0e 94 b7 03 	call	0x76e	; 0x76e <_Z11DisplayTexthhPc>
    2278:	09 c0       	rjmp	.+18     	; 0x228c <_Z9show_textPci+0xb8>
    227a:	d6 01       	movw	r26, r12
    227c:	8d 91       	ld	r24, X+
    227e:	8d 01       	movw	r16, r26
    2280:	89 83       	std	Y+1, r24	; 0x01
    2282:	ce 0e       	add	r12, r30
    2284:	df 1e       	adc	r13, r31
    2286:	21 e0       	ldi	r18, 0x01	; 1
    2288:	30 e0       	ldi	r19, 0x00	; 0
    228a:	e2 cf       	rjmp	.-60     	; 0x2250 <_Z9show_textPci+0x7c>
    228c:	65 96       	adiw	r28, 0x15	; 21
    228e:	0f b6       	in	r0, 0x3f	; 63
    2290:	f8 94       	cli
    2292:	de bf       	out	0x3e, r29	; 62
    2294:	0f be       	out	0x3f, r0	; 63
    2296:	cd bf       	out	0x3d, r28	; 61
    2298:	df 91       	pop	r29
    229a:	cf 91       	pop	r28
    229c:	1f 91       	pop	r17
    229e:	0f 91       	pop	r16
    22a0:	ff 90       	pop	r15
    22a2:	ef 90       	pop	r14
    22a4:	df 90       	pop	r13
    22a6:	cf 90       	pop	r12
    22a8:	08 95       	ret

000022aa <_Z5gaussv>:
    22aa:	2f 92       	push	r2
    22ac:	3f 92       	push	r3
    22ae:	4f 92       	push	r4
    22b0:	5f 92       	push	r5
    22b2:	6f 92       	push	r6
    22b4:	7f 92       	push	r7
    22b6:	8f 92       	push	r8
    22b8:	9f 92       	push	r9
    22ba:	af 92       	push	r10
    22bc:	bf 92       	push	r11
    22be:	cf 92       	push	r12
    22c0:	df 92       	push	r13
    22c2:	ef 92       	push	r14
    22c4:	ff 92       	push	r15
    22c6:	0f 93       	push	r16
    22c8:	1f 93       	push	r17
    22ca:	cf 93       	push	r28
    22cc:	df 93       	push	r29
    22ce:	cd b7       	in	r28, 0x3d	; 61
    22d0:	de b7       	in	r29, 0x3e	; 62
    22d2:	cd 5a       	subi	r28, 0xAD	; 173
    22d4:	d1 09       	sbc	r29, r1
    22d6:	0f b6       	in	r0, 0x3f	; 63
    22d8:	f8 94       	cli
    22da:	de bf       	out	0x3e, r29	; 62
    22dc:	0f be       	out	0x3f, r0	; 63
    22de:	cd bf       	out	0x3d, r28	; 61
    22e0:	8b e1       	ldi	r24, 0x1B	; 27
    22e2:	e2 e1       	ldi	r30, 0x12	; 18
    22e4:	f2 e0       	ldi	r31, 0x02	; 2
    22e6:	de 01       	movw	r26, r28
    22e8:	11 96       	adiw	r26, 0x01	; 1
    22ea:	01 90       	ld	r0, Z+
    22ec:	0d 92       	st	X+, r0
    22ee:	8a 95       	dec	r24
    22f0:	e1 f7       	brne	.-8      	; 0x22ea <_Z5gaussv+0x40>
    22f2:	8b e1       	ldi	r24, 0x1B	; 27
    22f4:	ed e2       	ldi	r30, 0x2D	; 45
    22f6:	f2 e0       	ldi	r31, 0x02	; 2
    22f8:	de 01       	movw	r26, r28
    22fa:	5c 96       	adiw	r26, 0x1c	; 28
    22fc:	01 90       	ld	r0, Z+
    22fe:	0d 92       	st	X+, r0
    2300:	8a 95       	dec	r24
    2302:	e1 f7       	brne	.-8      	; 0x22fc <_Z5gaussv+0x52>
    2304:	8d e0       	ldi	r24, 0x0D	; 13
    2306:	e8 e4       	ldi	r30, 0x48	; 72
    2308:	f2 e0       	ldi	r31, 0x02	; 2
    230a:	de 01       	movw	r26, r28
    230c:	d7 96       	adiw	r26, 0x37	; 55
    230e:	01 90       	ld	r0, Z+
    2310:	0d 92       	st	X+, r0
    2312:	8a 95       	dec	r24
    2314:	e1 f7       	brne	.-8      	; 0x230e <_Z5gaussv+0x64>
    2316:	83 e1       	ldi	r24, 0x13	; 19
    2318:	e5 e5       	ldi	r30, 0x55	; 85
    231a:	f2 e0       	ldi	r31, 0x02	; 2
    231c:	de 01       	movw	r26, r28
    231e:	ac 5b       	subi	r26, 0xBC	; 188
    2320:	bf 4f       	sbci	r27, 0xFF	; 255
    2322:	01 90       	ld	r0, Z+
    2324:	0d 92       	st	X+, r0
    2326:	8a 95       	dec	r24
    2328:	e1 f7       	brne	.-8      	; 0x2322 <_Z5gaussv+0x78>
    232a:	61 e0       	ldi	r22, 0x01	; 1
    232c:	70 e0       	ldi	r23, 0x00	; 0
    232e:	ce 01       	movw	r24, r28
    2330:	01 96       	adiw	r24, 0x01	; 1
    2332:	0e 94 ea 10 	call	0x21d4	; 0x21d4 <_Z9show_textPci>
    2336:	88 e1       	ldi	r24, 0x18	; 24
    2338:	90 e0       	ldi	r25, 0x00	; 0
    233a:	0e 94 e7 0e 	call	0x1dce	; 0x1dce <_Z16int_number_inputi>
    233e:	c3 56       	subi	r28, 0x63	; 99
    2340:	df 4f       	sbci	r29, 0xFF	; 255
    2342:	99 83       	std	Y+1, r25	; 0x01
    2344:	88 83       	st	Y, r24
    2346:	cd 59       	subi	r28, 0x9D	; 157
    2348:	d0 40       	sbci	r29, 0x00	; 0
    234a:	61 e0       	ldi	r22, 0x01	; 1
    234c:	70 e0       	ldi	r23, 0x00	; 0
    234e:	ce 01       	movw	r24, r28
    2350:	4c 96       	adiw	r24, 0x1c	; 28
    2352:	0e 94 ea 10 	call	0x21d4	; 0x21d4 <_Z9show_textPci>
    2356:	88 e1       	ldi	r24, 0x18	; 24
    2358:	90 e0       	ldi	r25, 0x00	; 0
    235a:	0e 94 e7 0e 	call	0x1dce	; 0x1dce <_Z16int_number_inputi>
    235e:	c8 55       	subi	r28, 0x58	; 88
    2360:	df 4f       	sbci	r29, 0xFF	; 255
    2362:	99 83       	std	Y+1, r25	; 0x01
    2364:	88 83       	st	Y, r24
    2366:	c8 5a       	subi	r28, 0xA8	; 168
    2368:	d0 40       	sbci	r29, 0x00	; 0
    236a:	c3 56       	subi	r28, 0x63	; 99
    236c:	df 4f       	sbci	r29, 0xFF	; 255
    236e:	28 81       	ld	r18, Y
    2370:	39 81       	ldd	r19, Y+1	; 0x01
    2372:	cd 59       	subi	r28, 0x9D	; 157
    2374:	d0 40       	sbci	r29, 0x00	; 0
    2376:	22 0f       	add	r18, r18
    2378:	33 1f       	adc	r19, r19
    237a:	22 0f       	add	r18, r18
    237c:	33 1f       	adc	r19, r19
    237e:	ce 55       	subi	r28, 0x5E	; 94
    2380:	df 4f       	sbci	r29, 0xFF	; 255
    2382:	39 83       	std	Y+1, r19	; 0x01
    2384:	28 83       	st	Y, r18
    2386:	c2 5a       	subi	r28, 0xA2	; 162
    2388:	d0 40       	sbci	r29, 0x00	; 0
    238a:	c9 01       	movw	r24, r18
    238c:	0e 94 87 1c 	call	0x390e	; 0x390e <malloc>
    2390:	c4 55       	subi	r28, 0x54	; 84
    2392:	df 4f       	sbci	r29, 0xFF	; 255
    2394:	88 83       	st	Y, r24
    2396:	cc 5a       	subi	r28, 0xAC	; 172
    2398:	d0 40       	sbci	r29, 0x00	; 0
    239a:	c3 55       	subi	r28, 0x53	; 83
    239c:	df 4f       	sbci	r29, 0xFF	; 255
    239e:	98 83       	st	Y, r25
    23a0:	cd 5a       	subi	r28, 0xAD	; 173
    23a2:	d0 40       	sbci	r29, 0x00	; 0
    23a4:	c8 55       	subi	r28, 0x58	; 88
    23a6:	df 4f       	sbci	r29, 0xFF	; 255
    23a8:	88 81       	ld	r24, Y
    23aa:	99 81       	ldd	r25, Y+1	; 0x01
    23ac:	c8 5a       	subi	r28, 0xA8	; 168
    23ae:	d0 40       	sbci	r29, 0x00	; 0
    23b0:	88 0f       	add	r24, r24
    23b2:	99 1f       	adc	r25, r25
    23b4:	c6 55       	subi	r28, 0x56	; 86
    23b6:	df 4f       	sbci	r29, 0xFF	; 255
    23b8:	99 83       	std	Y+1, r25	; 0x01
    23ba:	88 83       	st	Y, r24
    23bc:	ca 5a       	subi	r28, 0xAA	; 170
    23be:	d0 40       	sbci	r29, 0x00	; 0
    23c0:	0e 94 87 1c 	call	0x390e	; 0x390e <malloc>
    23c4:	ca 55       	subi	r28, 0x5A	; 90
    23c6:	df 4f       	sbci	r29, 0xFF	; 255
    23c8:	99 83       	std	Y+1, r25	; 0x01
    23ca:	88 83       	st	Y, r24
    23cc:	c6 5a       	subi	r28, 0xA6	; 166
    23ce:	d0 40       	sbci	r29, 0x00	; 0
    23d0:	c8 55       	subi	r28, 0x58	; 88
    23d2:	df 4f       	sbci	r29, 0xFF	; 255
    23d4:	e8 81       	ld	r30, Y
    23d6:	f9 81       	ldd	r31, Y+1	; 0x01
    23d8:	c8 5a       	subi	r28, 0xA8	; 168
    23da:	d0 40       	sbci	r29, 0x00	; 0
    23dc:	1e 16       	cp	r1, r30
    23de:	1f 06       	cpc	r1, r31
    23e0:	0c f0       	brlt	.+2      	; 0x23e4 <_Z5gaussv+0x13a>
    23e2:	3d c1       	rjmp	.+634    	; 0x265e <_Z5gaussv+0x3b4>
    23e4:	ce 55       	subi	r28, 0x5E	; 94
    23e6:	df 4f       	sbci	r29, 0xFF	; 255
    23e8:	e8 80       	ld	r14, Y
    23ea:	f9 80       	ldd	r15, Y+1	; 0x01
    23ec:	c2 5a       	subi	r28, 0xA2	; 162
    23ee:	d0 40       	sbci	r29, 0x00	; 0
    23f0:	f4 e0       	ldi	r31, 0x04	; 4
    23f2:	ef 0e       	add	r14, r31
    23f4:	f1 1c       	adc	r15, r1
    23f6:	c5 56       	subi	r28, 0x65	; 101
    23f8:	df 4f       	sbci	r29, 0xFF	; 255
    23fa:	99 83       	std	Y+1, r25	; 0x01
    23fc:	88 83       	st	Y, r24
    23fe:	cb 59       	subi	r28, 0x9B	; 155
    2400:	d0 40       	sbci	r29, 0x00	; 0
    2402:	9c 01       	movw	r18, r24
    2404:	c6 55       	subi	r28, 0x56	; 86
    2406:	df 4f       	sbci	r29, 0xFF	; 255
    2408:	88 81       	ld	r24, Y
    240a:	99 81       	ldd	r25, Y+1	; 0x01
    240c:	ca 5a       	subi	r28, 0xAA	; 170
    240e:	d0 40       	sbci	r29, 0x00	; 0
    2410:	28 0f       	add	r18, r24
    2412:	39 1f       	adc	r19, r25
    2414:	cc 55       	subi	r28, 0x5C	; 92
    2416:	df 4f       	sbci	r29, 0xFF	; 255
    2418:	39 83       	std	Y+1, r19	; 0x01
    241a:	28 83       	st	Y, r18
    241c:	c4 5a       	subi	r28, 0xA4	; 164
    241e:	d0 40       	sbci	r29, 0x00	; 0
    2420:	ca 55       	subi	r28, 0x5A	; 90
    2422:	df 4f       	sbci	r29, 0xFF	; 255
    2424:	08 81       	ld	r16, Y
    2426:	19 81       	ldd	r17, Y+1	; 0x01
    2428:	c6 5a       	subi	r28, 0xA6	; 166
    242a:	d0 40       	sbci	r29, 0x00	; 0
    242c:	69 01       	movw	r12, r18
    242e:	c7 01       	movw	r24, r14
    2430:	0e 94 87 1c 	call	0x390e	; 0x390e <malloc>
    2434:	f8 01       	movw	r30, r16
    2436:	81 93       	st	Z+, r24
    2438:	91 93       	st	Z+, r25
    243a:	8f 01       	movw	r16, r30
    243c:	ce 16       	cp	r12, r30
    243e:	df 06       	cpc	r13, r31
    2440:	b1 f7       	brne	.-20     	; 0x242e <_Z5gaussv+0x184>
    2442:	0f 2e       	mov	r0, r31
    2444:	f0 e3       	ldi	r31, 0x30	; 48
    2446:	4f 2e       	mov	r4, r31
    2448:	f0 2d       	mov	r31, r0
    244a:	9e 01       	movw	r18, r28
    244c:	29 5a       	subi	r18, 0xA9	; 169
    244e:	3f 4f       	sbci	r19, 0xFF	; 255
    2450:	c7 56       	subi	r28, 0x67	; 103
    2452:	df 4f       	sbci	r29, 0xFF	; 255
    2454:	39 83       	std	Y+1, r19	; 0x01
    2456:	28 83       	st	Y, r18
    2458:	c9 59       	subi	r28, 0x99	; 153
    245a:	d0 40       	sbci	r29, 0x00	; 0
    245c:	0f 2e       	mov	r0, r31
    245e:	f5 e0       	ldi	r31, 0x05	; 5
    2460:	2f 2e       	mov	r2, r31
    2462:	f0 2d       	mov	r31, r0
    2464:	c9 01       	movw	r24, r18
    2466:	09 96       	adiw	r24, 0x09	; 9
    2468:	c0 56       	subi	r28, 0x60	; 96
    246a:	df 4f       	sbci	r29, 0xFF	; 255
    246c:	99 83       	std	Y+1, r25	; 0x01
    246e:	88 83       	st	Y, r24
    2470:	c0 5a       	subi	r28, 0xA0	; 160
    2472:	d0 40       	sbci	r29, 0x00	; 0
    2474:	7e 01       	movw	r14, r28
    2476:	99 e8       	ldi	r25, 0x89	; 137
    2478:	e9 0e       	add	r14, r25
    247a:	f1 1c       	adc	r15, r1
    247c:	0f 2e       	mov	r0, r31
    247e:	fd e5       	ldi	r31, 0x5D	; 93
    2480:	5f 2e       	mov	r5, r31
    2482:	f0 2d       	mov	r31, r0
    2484:	c7 56       	subi	r28, 0x67	; 103
    2486:	df 4f       	sbci	r29, 0xFF	; 255
    2488:	08 81       	ld	r16, Y
    248a:	c9 59       	subi	r28, 0x99	; 153
    248c:	d0 40       	sbci	r29, 0x00	; 0
    248e:	c6 56       	subi	r28, 0x66	; 102
    2490:	df 4f       	sbci	r29, 0xFF	; 255
    2492:	18 81       	ld	r17, Y
    2494:	ca 59       	subi	r28, 0x9A	; 154
    2496:	d0 40       	sbci	r29, 0x00	; 0
    2498:	6e 2c       	mov	r6, r14
    249a:	7f 2c       	mov	r7, r15
    249c:	c3 56       	subi	r28, 0x63	; 99
    249e:	df 4f       	sbci	r29, 0xFF	; 255
    24a0:	e8 81       	ld	r30, Y
    24a2:	f9 81       	ldd	r31, Y+1	; 0x01
    24a4:	cd 59       	subi	r28, 0x9D	; 157
    24a6:	d0 40       	sbci	r29, 0x00	; 0
    24a8:	1e 16       	cp	r1, r30
    24aa:	1f 06       	cpc	r1, r31
    24ac:	0c f0       	brlt	.+2      	; 0x24b0 <_Z5gaussv+0x206>
    24ae:	83 c0       	rjmp	.+262    	; 0x25b6 <_Z5gaussv+0x30c>
    24b0:	a1 2c       	mov	r10, r1
    24b2:	b1 2c       	mov	r11, r1
    24b4:	0f 2e       	mov	r0, r31
    24b6:	f0 e3       	ldi	r31, 0x30	; 48
    24b8:	3f 2e       	mov	r3, r31
    24ba:	f0 2d       	mov	r31, r0
    24bc:	81 2c       	mov	r8, r1
    24be:	91 2c       	mov	r9, r1
    24c0:	c1 56       	subi	r28, 0x61	; 97
    24c2:	df 4f       	sbci	r29, 0xFF	; 255
    24c4:	48 82       	st	Y, r4
    24c6:	cf 59       	subi	r28, 0x9F	; 159
    24c8:	d0 40       	sbci	r29, 0x00	; 0
    24ca:	47 2c       	mov	r4, r7
    24cc:	73 2c       	mov	r7, r3
    24ce:	36 2c       	mov	r3, r6
    24d0:	89 e0       	ldi	r24, 0x09	; 9
    24d2:	e6 ed       	ldi	r30, 0xD6	; 214
    24d4:	f0 e0       	ldi	r31, 0x00	; 0
    24d6:	a0 2f       	mov	r26, r16
    24d8:	b1 2f       	mov	r27, r17
    24da:	01 90       	ld	r0, Z+
    24dc:	0d 92       	st	X+, r0
    24de:	8a 95       	dec	r24
    24e0:	e1 f7       	brne	.-8      	; 0x24da <_Z5gaussv+0x230>
    24e2:	c0 56       	subi	r28, 0x60	; 96
    24e4:	df 4f       	sbci	r29, 0xFF	; 255
    24e6:	e8 81       	ld	r30, Y
    24e8:	f9 81       	ldd	r31, Y+1	; 0x01
    24ea:	c0 5a       	subi	r28, 0xA0	; 160
    24ec:	d0 40       	sbci	r29, 0x00	; 0
    24ee:	22 2d       	mov	r18, r2
    24f0:	11 92       	st	Z+, r1
    24f2:	2a 95       	dec	r18
    24f4:	e9 f7       	brne	.-6      	; 0x24f0 <_Z5gaussv+0x246>
    24f6:	c1 56       	subi	r28, 0x61	; 97
    24f8:	df 4f       	sbci	r29, 0xFF	; 255
    24fa:	28 81       	ld	r18, Y
    24fc:	cf 59       	subi	r28, 0x9F	; 159
    24fe:	d0 40       	sbci	r29, 0x00	; 0
    2500:	f7 01       	movw	r30, r14
    2502:	20 83       	st	Z, r18
    2504:	11 82       	std	Z+1, r1	; 0x01
    2506:	63 2d       	mov	r22, r3
    2508:	74 2d       	mov	r23, r4
    250a:	80 2f       	mov	r24, r16
    250c:	91 2f       	mov	r25, r17
    250e:	0e 94 c8 1d 	call	0x3b90	; 0x3b90 <strcat>
    2512:	f7 01       	movw	r30, r14
    2514:	50 82       	st	Z, r5
    2516:	63 2d       	mov	r22, r3
    2518:	74 2d       	mov	r23, r4
    251a:	80 2f       	mov	r24, r16
    251c:	91 2f       	mov	r25, r17
    251e:	0e 94 c8 1d 	call	0x3b90	; 0x3b90 <strcat>
    2522:	2b e5       	ldi	r18, 0x5B	; 91
    2524:	f7 01       	movw	r30, r14
    2526:	20 83       	st	Z, r18
    2528:	63 2d       	mov	r22, r3
    252a:	74 2d       	mov	r23, r4
    252c:	80 2f       	mov	r24, r16
    252e:	91 2f       	mov	r25, r17
    2530:	0e 94 c8 1d 	call	0x3b90	; 0x3b90 <strcat>
    2534:	f7 01       	movw	r30, r14
    2536:	70 82       	st	Z, r7
    2538:	63 2d       	mov	r22, r3
    253a:	74 2d       	mov	r23, r4
    253c:	80 2f       	mov	r24, r16
    253e:	91 2f       	mov	r25, r17
    2540:	0e 94 c8 1d 	call	0x3b90	; 0x3b90 <strcat>
    2544:	f7 01       	movw	r30, r14
    2546:	50 82       	st	Z, r5
    2548:	63 2d       	mov	r22, r3
    254a:	74 2d       	mov	r23, r4
    254c:	80 2f       	mov	r24, r16
    254e:	91 2f       	mov	r25, r17
    2550:	0e 94 c8 1d 	call	0x3b90	; 0x3b90 <strcat>
    2554:	61 e0       	ldi	r22, 0x01	; 1
    2556:	70 e0       	ldi	r23, 0x00	; 0
    2558:	80 2f       	mov	r24, r16
    255a:	91 2f       	mov	r25, r17
    255c:	0e 94 ea 10 	call	0x21d4	; 0x21d4 <_Z9show_textPci>
    2560:	c5 56       	subi	r28, 0x65	; 101
    2562:	df 4f       	sbci	r29, 0xFF	; 255
    2564:	e8 81       	ld	r30, Y
    2566:	f9 81       	ldd	r31, Y+1	; 0x01
    2568:	cb 59       	subi	r28, 0x9B	; 155
    256a:	d0 40       	sbci	r29, 0x00	; 0
    256c:	c0 80       	ld	r12, Z
    256e:	d1 80       	ldd	r13, Z+1	; 0x01
    2570:	ca 0c       	add	r12, r10
    2572:	db 1c       	adc	r13, r11
    2574:	8c e0       	ldi	r24, 0x0C	; 12
    2576:	90 e0       	ldi	r25, 0x00	; 0
    2578:	0e 94 d3 0f 	call	0x1fa6	; 0x1fa6 <_Z16double_num_inputi>
    257c:	f6 01       	movw	r30, r12
    257e:	60 83       	st	Z, r22
    2580:	71 83       	std	Z+1, r23	; 0x01
    2582:	82 83       	std	Z+2, r24	; 0x02
    2584:	93 83       	std	Z+3, r25	; 0x03
    2586:	ff ef       	ldi	r31, 0xFF	; 255
    2588:	8f 1a       	sub	r8, r31
    258a:	9f 0a       	sbc	r9, r31
    258c:	73 94       	inc	r7
    258e:	24 e0       	ldi	r18, 0x04	; 4
    2590:	a2 0e       	add	r10, r18
    2592:	b1 1c       	adc	r11, r1
    2594:	c3 56       	subi	r28, 0x63	; 99
    2596:	df 4f       	sbci	r29, 0xFF	; 255
    2598:	88 81       	ld	r24, Y
    259a:	99 81       	ldd	r25, Y+1	; 0x01
    259c:	cd 59       	subi	r28, 0x9D	; 157
    259e:	d0 40       	sbci	r29, 0x00	; 0
    25a0:	88 15       	cp	r24, r8
    25a2:	99 05       	cpc	r25, r9
    25a4:	09 f0       	breq	.+2      	; 0x25a8 <_Z5gaussv+0x2fe>
    25a6:	94 cf       	rjmp	.-216    	; 0x24d0 <_Z5gaussv+0x226>
    25a8:	63 2c       	mov	r6, r3
    25aa:	74 2c       	mov	r7, r4
    25ac:	c1 56       	subi	r28, 0x61	; 97
    25ae:	df 4f       	sbci	r29, 0xFF	; 255
    25b0:	48 80       	ld	r4, Y
    25b2:	cf 59       	subi	r28, 0x9F	; 159
    25b4:	d0 40       	sbci	r29, 0x00	; 0
    25b6:	80 e1       	ldi	r24, 0x10	; 16
    25b8:	e4 ee       	ldi	r30, 0xE4	; 228
    25ba:	f0 e0       	ldi	r31, 0x00	; 0
    25bc:	a0 2f       	mov	r26, r16
    25be:	b1 2f       	mov	r27, r17
    25c0:	01 90       	ld	r0, Z+
    25c2:	0d 92       	st	X+, r0
    25c4:	8a 95       	dec	r24
    25c6:	e1 f7       	brne	.-8      	; 0x25c0 <_Z5gaussv+0x316>
    25c8:	a9 96       	adiw	r28, 0x29	; 41
    25ca:	1f ae       	std	Y+63, r1	; 0x3f
    25cc:	1e ae       	std	Y+62, r1	; 0x3e
    25ce:	a9 97       	sbiw	r28, 0x29	; 41
    25d0:	f7 01       	movw	r30, r14
    25d2:	40 82       	st	Z, r4
    25d4:	11 82       	std	Z+1, r1	; 0x01
    25d6:	66 2d       	mov	r22, r6
    25d8:	77 2d       	mov	r23, r7
    25da:	80 2f       	mov	r24, r16
    25dc:	91 2f       	mov	r25, r17
    25de:	0e 94 c8 1d 	call	0x3b90	; 0x3b90 <strcat>
    25e2:	f7 01       	movw	r30, r14
    25e4:	50 82       	st	Z, r5
    25e6:	66 2d       	mov	r22, r6
    25e8:	77 2d       	mov	r23, r7
    25ea:	80 2f       	mov	r24, r16
    25ec:	91 2f       	mov	r25, r17
    25ee:	0e 94 c8 1d 	call	0x3b90	; 0x3b90 <strcat>
    25f2:	61 e0       	ldi	r22, 0x01	; 1
    25f4:	70 e0       	ldi	r23, 0x00	; 0
    25f6:	80 2f       	mov	r24, r16
    25f8:	91 2f       	mov	r25, r17
    25fa:	0e 94 ea 10 	call	0x21d4	; 0x21d4 <_Z9show_textPci>
    25fe:	c5 56       	subi	r28, 0x65	; 101
    2600:	df 4f       	sbci	r29, 0xFF	; 255
    2602:	e8 81       	ld	r30, Y
    2604:	f9 81       	ldd	r31, Y+1	; 0x01
    2606:	cb 59       	subi	r28, 0x9B	; 155
    2608:	d0 40       	sbci	r29, 0x00	; 0
    260a:	c1 90       	ld	r12, Z+
    260c:	d1 90       	ld	r13, Z+
    260e:	c5 56       	subi	r28, 0x65	; 101
    2610:	df 4f       	sbci	r29, 0xFF	; 255
    2612:	f9 83       	std	Y+1, r31	; 0x01
    2614:	e8 83       	st	Y, r30
    2616:	cb 59       	subi	r28, 0x9B	; 155
    2618:	d0 40       	sbci	r29, 0x00	; 0
    261a:	ce 55       	subi	r28, 0x5E	; 94
    261c:	df 4f       	sbci	r29, 0xFF	; 255
    261e:	28 81       	ld	r18, Y
    2620:	39 81       	ldd	r19, Y+1	; 0x01
    2622:	c2 5a       	subi	r28, 0xA2	; 162
    2624:	d0 40       	sbci	r29, 0x00	; 0
    2626:	c2 0e       	add	r12, r18
    2628:	d3 1e       	adc	r13, r19
    262a:	8c e0       	ldi	r24, 0x0C	; 12
    262c:	90 e0       	ldi	r25, 0x00	; 0
    262e:	0e 94 d3 0f 	call	0x1fa6	; 0x1fa6 <_Z16double_num_inputi>
    2632:	f6 01       	movw	r30, r12
    2634:	60 83       	st	Z, r22
    2636:	71 83       	std	Z+1, r23	; 0x01
    2638:	82 83       	std	Z+2, r24	; 0x02
    263a:	93 83       	std	Z+3, r25	; 0x03
    263c:	43 94       	inc	r4
    263e:	c5 56       	subi	r28, 0x65	; 101
    2640:	df 4f       	sbci	r29, 0xFF	; 255
    2642:	28 81       	ld	r18, Y
    2644:	39 81       	ldd	r19, Y+1	; 0x01
    2646:	cb 59       	subi	r28, 0x9B	; 155
    2648:	d0 40       	sbci	r29, 0x00	; 0
    264a:	cc 55       	subi	r28, 0x5C	; 92
    264c:	df 4f       	sbci	r29, 0xFF	; 255
    264e:	88 81       	ld	r24, Y
    2650:	99 81       	ldd	r25, Y+1	; 0x01
    2652:	c4 5a       	subi	r28, 0xA4	; 164
    2654:	d0 40       	sbci	r29, 0x00	; 0
    2656:	28 17       	cp	r18, r24
    2658:	39 07       	cpc	r19, r25
    265a:	09 f0       	breq	.+2      	; 0x265e <_Z5gaussv+0x3b4>
    265c:	1f cf       	rjmp	.-450    	; 0x249c <_Z5gaussv+0x1f2>
    265e:	ca 55       	subi	r28, 0x5A	; 90
    2660:	df 4f       	sbci	r29, 0xFF	; 255
    2662:	28 81       	ld	r18, Y
    2664:	39 81       	ldd	r19, Y+1	; 0x01
    2666:	c6 5a       	subi	r28, 0xA6	; 166
    2668:	d0 40       	sbci	r29, 0x00	; 0
    266a:	c4 55       	subi	r28, 0x54	; 84
    266c:	df 4f       	sbci	r29, 0xFF	; 255
    266e:	48 81       	ld	r20, Y
    2670:	cc 5a       	subi	r28, 0xAC	; 172
    2672:	d0 40       	sbci	r29, 0x00	; 0
    2674:	c3 55       	subi	r28, 0x53	; 83
    2676:	df 4f       	sbci	r29, 0xFF	; 255
    2678:	58 81       	ld	r21, Y
    267a:	cd 5a       	subi	r28, 0xAD	; 173
    267c:	d0 40       	sbci	r29, 0x00	; 0
    267e:	c3 56       	subi	r28, 0x63	; 99
    2680:	df 4f       	sbci	r29, 0xFF	; 255
    2682:	68 81       	ld	r22, Y
    2684:	79 81       	ldd	r23, Y+1	; 0x01
    2686:	cd 59       	subi	r28, 0x9D	; 157
    2688:	d0 40       	sbci	r29, 0x00	; 0
    268a:	c8 55       	subi	r28, 0x58	; 88
    268c:	df 4f       	sbci	r29, 0xFF	; 255
    268e:	88 81       	ld	r24, Y
    2690:	99 81       	ldd	r25, Y+1	; 0x01
    2692:	c8 5a       	subi	r28, 0xA8	; 168
    2694:	d0 40       	sbci	r29, 0x00	; 0
    2696:	0e 94 c4 08 	call	0x1188	; 0x1188 <_Z10gauss_algoiiPdPS_>
    269a:	00 97       	sbiw	r24, 0x00	; 0
    269c:	39 f4       	brne	.+14     	; 0x26ac <_Z5gaussv+0x402>
    269e:	61 e0       	ldi	r22, 0x01	; 1
    26a0:	70 e0       	ldi	r23, 0x00	; 0
    26a2:	ce 01       	movw	r24, r28
    26a4:	c7 96       	adiw	r24, 0x37	; 55
    26a6:	0e 94 ea 10 	call	0x21d4	; 0x21d4 <_Z9show_textPci>
    26aa:	0b c1       	rjmp	.+534    	; 0x28c2 <_Z5gaussv+0x618>
    26ac:	81 30       	cpi	r24, 0x01	; 1
    26ae:	91 05       	cpc	r25, r1
    26b0:	99 f4       	brne	.+38     	; 0x26d8 <_Z5gaussv+0x42e>
    26b2:	9f ef       	ldi	r25, 0xFF	; 255
    26b4:	ee e9       	ldi	r30, 0x9E	; 158
    26b6:	f4 e2       	ldi	r31, 0x24	; 36
    26b8:	91 50       	subi	r25, 0x01	; 1
    26ba:	e0 40       	sbci	r30, 0x00	; 0
    26bc:	f0 40       	sbci	r31, 0x00	; 0
    26be:	e1 f7       	brne	.-8      	; 0x26b8 <_Z5gaussv+0x40e>
    26c0:	00 c0       	rjmp	.+0      	; 0x26c2 <_Z5gaussv+0x418>
    26c2:	00 00       	nop
    26c4:	c3 56       	subi	r28, 0x63	; 99
    26c6:	df 4f       	sbci	r29, 0xFF	; 255
    26c8:	28 81       	ld	r18, Y
    26ca:	39 81       	ldd	r19, Y+1	; 0x01
    26cc:	cd 59       	subi	r28, 0x9D	; 157
    26ce:	d0 40       	sbci	r29, 0x00	; 0
    26d0:	12 16       	cp	r1, r18
    26d2:	13 06       	cpc	r1, r19
    26d4:	fc f0       	brlt	.+62     	; 0x2714 <_Z5gaussv+0x46a>
    26d6:	13 c0       	rjmp	.+38     	; 0x26fe <_Z5gaussv+0x454>
    26d8:	02 97       	sbiw	r24, 0x02	; 2
    26da:	a1 f7       	brne	.-24     	; 0x26c4 <_Z5gaussv+0x41a>
    26dc:	61 e0       	ldi	r22, 0x01	; 1
    26de:	70 e0       	ldi	r23, 0x00	; 0
    26e0:	ce 01       	movw	r24, r28
    26e2:	8c 5b       	subi	r24, 0xBC	; 188
    26e4:	9f 4f       	sbci	r25, 0xFF	; 255
    26e6:	0e 94 ea 10 	call	0x21d4	; 0x21d4 <_Z9show_textPci>
    26ea:	3f ef       	ldi	r19, 0xFF	; 255
    26ec:	8e e9       	ldi	r24, 0x9E	; 158
    26ee:	94 e2       	ldi	r25, 0x24	; 36
    26f0:	31 50       	subi	r19, 0x01	; 1
    26f2:	80 40       	sbci	r24, 0x00	; 0
    26f4:	90 40       	sbci	r25, 0x00	; 0
    26f6:	e1 f7       	brne	.-8      	; 0x26f0 <_Z5gaussv+0x446>
    26f8:	00 c0       	rjmp	.+0      	; 0x26fa <_Z5gaussv+0x450>
    26fa:	00 00       	nop
    26fc:	e3 cf       	rjmp	.-58     	; 0x26c4 <_Z5gaussv+0x41a>
    26fe:	c8 55       	subi	r28, 0x58	; 88
    2700:	df 4f       	sbci	r29, 0xFF	; 255
    2702:	e8 81       	ld	r30, Y
    2704:	f9 81       	ldd	r31, Y+1	; 0x01
    2706:	c8 5a       	subi	r28, 0xA8	; 168
    2708:	d0 40       	sbci	r29, 0x00	; 0
    270a:	1e 16       	cp	r1, r30
    270c:	1f 06       	cpc	r1, r31
    270e:	0c f4       	brge	.+2      	; 0x2712 <_Z5gaussv+0x468>
    2710:	ac c0       	rjmp	.+344    	; 0x286a <_Z5gaussv+0x5c0>
    2712:	c3 c0       	rjmp	.+390    	; 0x289a <_Z5gaussv+0x5f0>
    2714:	c4 55       	subi	r28, 0x54	; 84
    2716:	df 4f       	sbci	r29, 0xFF	; 255
    2718:	a8 80       	ld	r10, Y
    271a:	cc 5a       	subi	r28, 0xAC	; 172
    271c:	d0 40       	sbci	r29, 0x00	; 0
    271e:	c3 55       	subi	r28, 0x53	; 83
    2720:	df 4f       	sbci	r29, 0xFF	; 255
    2722:	b8 80       	ld	r11, Y
    2724:	cd 5a       	subi	r28, 0xAD	; 173
    2726:	d0 40       	sbci	r29, 0x00	; 0
    2728:	0f 2e       	mov	r0, r31
    272a:	f0 e3       	ldi	r31, 0x30	; 48
    272c:	7f 2e       	mov	r7, r31
    272e:	f0 2d       	mov	r31, r0
    2730:	c1 2c       	mov	r12, r1
    2732:	d1 2c       	mov	r13, r1
    2734:	0f 2e       	mov	r0, r31
    2736:	f7 e0       	ldi	r31, 0x07	; 7
    2738:	5f 2e       	mov	r5, r31
    273a:	f0 2d       	mov	r31, r0
    273c:	0f 2e       	mov	r0, r31
    273e:	f9 e8       	ldi	r31, 0x89	; 137
    2740:	8f 2e       	mov	r8, r31
    2742:	91 2c       	mov	r9, r1
    2744:	f0 2d       	mov	r31, r0
    2746:	8c 0e       	add	r8, r28
    2748:	9d 1e       	adc	r9, r29
    274a:	f7 e0       	ldi	r31, 0x07	; 7
    274c:	8f 0e       	add	r8, r31
    274e:	91 1c       	adc	r9, r1
    2750:	0f 2e       	mov	r0, r31
    2752:	fd e5       	ldi	r31, 0x5D	; 93
    2754:	6f 2e       	mov	r6, r31
    2756:	f0 2d       	mov	r31, r0
    2758:	ee 24       	eor	r14, r14
    275a:	e3 94       	inc	r14
    275c:	f1 2c       	mov	r15, r1
    275e:	c3 56       	subi	r28, 0x63	; 99
    2760:	df 4f       	sbci	r29, 0xFF	; 255
    2762:	28 80       	ld	r2, Y
    2764:	39 80       	ldd	r3, Y+1	; 0x01
    2766:	cd 59       	subi	r28, 0x9D	; 157
    2768:	d0 40       	sbci	r29, 0x00	; 0
    276a:	87 e0       	ldi	r24, 0x07	; 7
    276c:	e6 ef       	ldi	r30, 0xF6	; 246
    276e:	f0 e0       	ldi	r31, 0x00	; 0
    2770:	de 01       	movw	r26, r28
    2772:	a7 57       	subi	r26, 0x77	; 119
    2774:	bf 4f       	sbci	r27, 0xFF	; 255
    2776:	01 90       	ld	r0, Z+
    2778:	0d 92       	st	X+, r0
    277a:	8a 95       	dec	r24
    277c:	e1 f7       	brne	.-8      	; 0x2776 <_Z5gaussv+0x4cc>
    277e:	f4 01       	movw	r30, r8
    2780:	25 2d       	mov	r18, r5
    2782:	11 92       	st	Z+, r1
    2784:	2a 95       	dec	r18
    2786:	e9 f7       	brne	.-6      	; 0x2782 <_Z5gaussv+0x4d8>
    2788:	c9 56       	subi	r28, 0x69	; 105
    278a:	df 4f       	sbci	r29, 0xFF	; 255
    278c:	78 82       	st	Y, r7
    278e:	c7 59       	subi	r28, 0x97	; 151
    2790:	d0 40       	sbci	r29, 0x00	; 0
    2792:	c8 56       	subi	r28, 0x68	; 104
    2794:	df 4f       	sbci	r29, 0xFF	; 255
    2796:	18 82       	st	Y, r1
    2798:	c8 59       	subi	r28, 0x98	; 152
    279a:	d0 40       	sbci	r29, 0x00	; 0
    279c:	be 01       	movw	r22, r28
    279e:	69 56       	subi	r22, 0x69	; 105
    27a0:	7f 4f       	sbci	r23, 0xFF	; 255
    27a2:	ce 01       	movw	r24, r28
    27a4:	87 57       	subi	r24, 0x77	; 119
    27a6:	9f 4f       	sbci	r25, 0xFF	; 255
    27a8:	0e 94 c8 1d 	call	0x3b90	; 0x3b90 <strcat>
    27ac:	c9 56       	subi	r28, 0x69	; 105
    27ae:	df 4f       	sbci	r29, 0xFF	; 255
    27b0:	68 82       	st	Y, r6
    27b2:	c7 59       	subi	r28, 0x97	; 151
    27b4:	d0 40       	sbci	r29, 0x00	; 0
    27b6:	be 01       	movw	r22, r28
    27b8:	69 56       	subi	r22, 0x69	; 105
    27ba:	7f 4f       	sbci	r23, 0xFF	; 255
    27bc:	ce 01       	movw	r24, r28
    27be:	87 57       	subi	r24, 0x77	; 119
    27c0:	9f 4f       	sbci	r25, 0xFF	; 255
    27c2:	0e 94 c8 1d 	call	0x3b90	; 0x3b90 <strcat>
    27c6:	b7 01       	movw	r22, r14
    27c8:	ce 01       	movw	r24, r28
    27ca:	87 57       	subi	r24, 0x77	; 119
    27cc:	9f 4f       	sbci	r25, 0xFF	; 255
    27ce:	0e 94 ea 10 	call	0x21d4	; 0x21d4 <_Z9show_textPci>
    27d2:	f5 01       	movw	r30, r10
    27d4:	61 91       	ld	r22, Z+
    27d6:	71 91       	ld	r23, Z+
    27d8:	81 91       	ld	r24, Z+
    27da:	91 91       	ld	r25, Z+
    27dc:	5f 01       	movw	r10, r30
    27de:	8e 01       	movw	r16, r28
    27e0:	09 5a       	subi	r16, 0xA9	; 169
    27e2:	1f 4f       	sbci	r17, 0xFF	; 255
    27e4:	22 e0       	ldi	r18, 0x02	; 2
    27e6:	41 e0       	ldi	r20, 0x01	; 1
    27e8:	0e 94 67 1c 	call	0x38ce	; 0x38ce <dtostrf>
    27ec:	6c e0       	ldi	r22, 0x0C	; 12
    27ee:	70 e0       	ldi	r23, 0x00	; 0
    27f0:	c8 01       	movw	r24, r16
    27f2:	0e 94 ea 10 	call	0x21d4	; 0x21d4 <_Z9show_textPci>
    27f6:	44 e0       	ldi	r20, 0x04	; 4
    27f8:	50 e0       	ldi	r21, 0x00	; 0
    27fa:	c7 01       	movw	r24, r14
    27fc:	04 2e       	mov	r0, r20
    27fe:	02 c0       	rjmp	.+4      	; 0x2804 <_Z5gaussv+0x55a>
    2800:	88 0f       	add	r24, r24
    2802:	99 1f       	adc	r25, r25
    2804:	0a 94       	dec	r0
    2806:	e2 f7       	brpl	.-8      	; 0x2800 <_Z5gaussv+0x556>
    2808:	88 bb       	out	0x18, r24	; 24
    280a:	fa 01       	movw	r30, r20
    280c:	ee 53       	subi	r30, 0x3E	; 62
    280e:	ff 4f       	sbci	r31, 0xFF	; 255
    2810:	20 e0       	ldi	r18, 0x00	; 0
    2812:	30 e0       	ldi	r19, 0x00	; 0
    2814:	86 b3       	in	r24, 0x16	; 22
    2816:	90 e0       	ldi	r25, 0x00	; 0
    2818:	02 2e       	mov	r0, r18
    281a:	02 c0       	rjmp	.+4      	; 0x2820 <_Z5gaussv+0x576>
    281c:	95 95       	asr	r25
    281e:	87 95       	ror	r24
    2820:	0a 94       	dec	r0
    2822:	e2 f7       	brpl	.-8      	; 0x281c <_Z5gaussv+0x572>
    2824:	80 ff       	sbrs	r24, 0
    2826:	03 c0       	rjmp	.+6      	; 0x282e <_Z5gaussv+0x584>
    2828:	80 81       	ld	r24, Z
    282a:	8d 33       	cpi	r24, 0x3D	; 61
    282c:	61 f0       	breq	.+24     	; 0x2846 <_Z5gaussv+0x59c>
    282e:	2f 5f       	subi	r18, 0xFF	; 255
    2830:	3f 4f       	sbci	r19, 0xFF	; 255
    2832:	34 96       	adiw	r30, 0x04	; 4
    2834:	24 30       	cpi	r18, 0x04	; 4
    2836:	31 05       	cpc	r19, r1
    2838:	69 f7       	brne	.-38     	; 0x2814 <_Z5gaussv+0x56a>
    283a:	4f 5f       	subi	r20, 0xFF	; 255
    283c:	5f 4f       	sbci	r21, 0xFF	; 255
    283e:	48 30       	cpi	r20, 0x08	; 8
    2840:	51 05       	cpc	r21, r1
    2842:	d9 f6       	brne	.-74     	; 0x27fa <_Z5gaussv+0x550>
    2844:	d8 cf       	rjmp	.-80     	; 0x27f6 <_Z5gaussv+0x54c>
    2846:	ff ef       	ldi	r31, 0xFF	; 255
    2848:	24 e3       	ldi	r18, 0x34	; 52
    284a:	3c e0       	ldi	r19, 0x0C	; 12
    284c:	f1 50       	subi	r31, 0x01	; 1
    284e:	20 40       	sbci	r18, 0x00	; 0
    2850:	30 40       	sbci	r19, 0x00	; 0
    2852:	e1 f7       	brne	.-8      	; 0x284c <_Z5gaussv+0x5a2>
    2854:	00 c0       	rjmp	.+0      	; 0x2856 <_Z5gaussv+0x5ac>
    2856:	00 00       	nop
    2858:	8f ef       	ldi	r24, 0xFF	; 255
    285a:	c8 1a       	sub	r12, r24
    285c:	d8 0a       	sbc	r13, r24
    285e:	73 94       	inc	r7
    2860:	2c 14       	cp	r2, r12
    2862:	3d 04       	cpc	r3, r13
    2864:	09 f0       	breq	.+2      	; 0x2868 <_Z5gaussv+0x5be>
    2866:	81 cf       	rjmp	.-254    	; 0x276a <_Z5gaussv+0x4c0>
    2868:	4a cf       	rjmp	.-364    	; 0x26fe <_Z5gaussv+0x454>
    286a:	ca 55       	subi	r28, 0x5A	; 90
    286c:	df 4f       	sbci	r29, 0xFF	; 255
    286e:	08 81       	ld	r16, Y
    2870:	19 81       	ldd	r17, Y+1	; 0x01
    2872:	c6 5a       	subi	r28, 0xA6	; 166
    2874:	d0 40       	sbci	r29, 0x00	; 0
    2876:	78 01       	movw	r14, r16
    2878:	c6 55       	subi	r28, 0x56	; 86
    287a:	df 4f       	sbci	r29, 0xFF	; 255
    287c:	e8 81       	ld	r30, Y
    287e:	f9 81       	ldd	r31, Y+1	; 0x01
    2880:	ca 5a       	subi	r28, 0xAA	; 170
    2882:	d0 40       	sbci	r29, 0x00	; 0
    2884:	ee 0e       	add	r14, r30
    2886:	ff 1e       	adc	r15, r31
    2888:	f8 01       	movw	r30, r16
    288a:	81 91       	ld	r24, Z+
    288c:	91 91       	ld	r25, Z+
    288e:	8f 01       	movw	r16, r30
    2890:	0e 94 1f 1d 	call	0x3a3e	; 0x3a3e <free>
    2894:	e0 16       	cp	r14, r16
    2896:	f1 06       	cpc	r15, r17
    2898:	b9 f7       	brne	.-18     	; 0x2888 <_Z5gaussv+0x5de>
    289a:	ca 55       	subi	r28, 0x5A	; 90
    289c:	df 4f       	sbci	r29, 0xFF	; 255
    289e:	88 81       	ld	r24, Y
    28a0:	99 81       	ldd	r25, Y+1	; 0x01
    28a2:	c6 5a       	subi	r28, 0xA6	; 166
    28a4:	d0 40       	sbci	r29, 0x00	; 0
    28a6:	0e 94 1f 1d 	call	0x3a3e	; 0x3a3e <free>
    28aa:	c4 55       	subi	r28, 0x54	; 84
    28ac:	df 4f       	sbci	r29, 0xFF	; 255
    28ae:	88 81       	ld	r24, Y
    28b0:	cc 5a       	subi	r28, 0xAC	; 172
    28b2:	d0 40       	sbci	r29, 0x00	; 0
    28b4:	c3 55       	subi	r28, 0x53	; 83
    28b6:	df 4f       	sbci	r29, 0xFF	; 255
    28b8:	98 81       	ld	r25, Y
    28ba:	cd 5a       	subi	r28, 0xAD	; 173
    28bc:	d0 40       	sbci	r29, 0x00	; 0
    28be:	0e 94 1f 1d 	call	0x3a3e	; 0x3a3e <free>
    28c2:	c3 55       	subi	r28, 0x53	; 83
    28c4:	df 4f       	sbci	r29, 0xFF	; 255
    28c6:	0f b6       	in	r0, 0x3f	; 63
    28c8:	f8 94       	cli
    28ca:	de bf       	out	0x3e, r29	; 62
    28cc:	0f be       	out	0x3f, r0	; 63
    28ce:	cd bf       	out	0x3d, r28	; 61
    28d0:	df 91       	pop	r29
    28d2:	cf 91       	pop	r28
    28d4:	1f 91       	pop	r17
    28d6:	0f 91       	pop	r16
    28d8:	ff 90       	pop	r15
    28da:	ef 90       	pop	r14
    28dc:	df 90       	pop	r13
    28de:	cf 90       	pop	r12
    28e0:	bf 90       	pop	r11
    28e2:	af 90       	pop	r10
    28e4:	9f 90       	pop	r9
    28e6:	8f 90       	pop	r8
    28e8:	7f 90       	pop	r7
    28ea:	6f 90       	pop	r6
    28ec:	5f 90       	pop	r5
    28ee:	4f 90       	pop	r4
    28f0:	3f 90       	pop	r3
    28f2:	2f 90       	pop	r2
    28f4:	08 95       	ret

000028f6 <_Z7simpsonv>:
	//todo
}

void simpson()
{
    28f6:	2f 92       	push	r2
    28f8:	3f 92       	push	r3
    28fa:	4f 92       	push	r4
    28fc:	5f 92       	push	r5
    28fe:	6f 92       	push	r6
    2900:	7f 92       	push	r7
    2902:	8f 92       	push	r8
    2904:	9f 92       	push	r9
    2906:	af 92       	push	r10
    2908:	bf 92       	push	r11
    290a:	cf 92       	push	r12
    290c:	df 92       	push	r13
    290e:	ef 92       	push	r14
    2910:	ff 92       	push	r15
    2912:	0f 93       	push	r16
    2914:	1f 93       	push	r17
    2916:	cf 93       	push	r28
    2918:	df 93       	push	r29
    291a:	cd b7       	in	r28, 0x3d	; 61
    291c:	de b7       	in	r29, 0x3e	; 62
    291e:	c7 57       	subi	r28, 0x77	; 119
    2920:	d1 09       	sbc	r29, r1
    2922:	0f b6       	in	r0, 0x3f	; 63
    2924:	f8 94       	cli
    2926:	de bf       	out	0x3e, r29	; 62
    2928:	0f be       	out	0x3f, r0	; 63
    292a:	cd bf       	out	0x3d, r28	; 61
	LCD_Clear();
    292c:	0e 94 2d 03 	call	0x65a	; 0x65a <_Z9LCD_Clearv>
	char text1[] = "Input Equation of x:";
    2930:	85 e1       	ldi	r24, 0x15	; 21
    2932:	e8 e6       	ldi	r30, 0x68	; 104
    2934:	f2 e0       	ldi	r31, 0x02	; 2
    2936:	de 01       	movw	r26, r28
    2938:	11 96       	adiw	r26, 0x01	; 1
    293a:	01 90       	ld	r0, Z+
    293c:	0d 92       	st	X+, r0
    293e:	8a 95       	dec	r24
    2940:	e1 f7       	brne	.-8      	; 0x293a <_Z7simpsonv+0x44>
	char text2[] = "Input lower limit:";
    2942:	83 e1       	ldi	r24, 0x13	; 19
    2944:	ed e7       	ldi	r30, 0x7D	; 125
    2946:	f2 e0       	ldi	r31, 0x02	; 2
    2948:	de 01       	movw	r26, r28
    294a:	56 96       	adiw	r26, 0x16	; 22
    294c:	01 90       	ld	r0, Z+
    294e:	0d 92       	st	X+, r0
    2950:	8a 95       	dec	r24
    2952:	e1 f7       	brne	.-8      	; 0x294c <_Z7simpsonv+0x56>
	char text3[] = "Input upper limit:";
    2954:	83 e1       	ldi	r24, 0x13	; 19
    2956:	e0 e9       	ldi	r30, 0x90	; 144
    2958:	f2 e0       	ldi	r31, 0x02	; 2
    295a:	de 01       	movw	r26, r28
    295c:	99 96       	adiw	r26, 0x29	; 41
    295e:	01 90       	ld	r0, Z+
    2960:	0d 92       	st	X+, r0
    2962:	8a 95       	dec	r24
    2964:	e1 f7       	brne	.-8      	; 0x295e <_Z7simpsonv+0x68>
	DisplayText(1,1,text1);
    2966:	ae 01       	movw	r20, r28
    2968:	4f 5f       	subi	r20, 0xFF	; 255
    296a:	5f 4f       	sbci	r21, 0xFF	; 255
    296c:	61 e0       	ldi	r22, 0x01	; 1
    296e:	81 e0       	ldi	r24, 0x01	; 1
    2970:	0e 94 b7 03 	call	0x76e	; 0x76e <_Z11DisplayTexthhPc>
	//input function
	char s[50];
	int len=0;
	int where=12;
    2974:	0f 2e       	mov	r0, r31
    2976:	fc e0       	ldi	r31, 0x0C	; 12
    2978:	8f 2e       	mov	r8, r31
    297a:	91 2c       	mov	r9, r1
    297c:	f0 2d       	mov	r31, r0
	char text2[] = "Input lower limit:";
	char text3[] = "Input upper limit:";
	DisplayText(1,1,text1);
	//input function
	char s[50];
	int len=0;
    297e:	e1 2c       	mov	r14, r1
    2980:	f1 2c       	mov	r15, r1
					else
					{
						append(s , len , mat2[r][c-4]);
						len = strlen(s);
					}
					DisplayText(1,where,s);
    2982:	2e 01       	movw	r4, r28
    2984:	2c e3       	ldi	r18, 0x3C	; 60
    2986:	42 0e       	add	r4, r18
    2988:	51 1c       	adc	r5, r1
    298a:	e5 96       	adiw	r28, 0x35	; 53
    298c:	4f ae       	std	Y+63, r4	; 0x3f
    298e:	e5 97       	sbiw	r28, 0x35	; 53
    2990:	e6 96       	adiw	r28, 0x36	; 54
    2992:	5f ae       	std	Y+63, r5	; 0x3f
    2994:	e6 97       	sbiw	r28, 0x36	; 54
    2996:	0f 2e       	mov	r0, r31
    2998:	f6 e6       	ldi	r31, 0x66	; 102
    299a:	2f 2e       	mov	r2, r31
    299c:	f0 e0       	ldi	r31, 0x00	; 0
    299e:	3f 2e       	mov	r3, r31
    29a0:	f0 2d       	mov	r31, r0
	int len=0;
	int where=12;
	while (1)
	{
		bool done = 0;
		for(int c=4;c<8;c++)
    29a2:	68 94       	set
    29a4:	66 24       	eor	r6, r6
    29a6:	62 f8       	bld	r6, 2
    29a8:	71 2c       	mov	r7, r1
		{
			PORTB=1<<c;
    29aa:	81 e0       	ldi	r24, 0x01	; 1
    29ac:	90 e0       	ldi	r25, 0x00	; 0
    29ae:	06 2c       	mov	r0, r6
    29b0:	02 c0       	rjmp	.+4      	; 0x29b6 <_Z7simpsonv+0xc0>
    29b2:	88 0f       	add	r24, r24
    29b4:	99 1f       	adc	r25, r25
    29b6:	0a 94       	dec	r0
    29b8:	e2 f7       	brpl	.-8      	; 0x29b2 <_Z7simpsonv+0xbc>
    29ba:	88 bb       	out	0x18, r24	; 24
			PORTA=1<<c;
    29bc:	8b bb       	out	0x1b, r24	; 27
    29be:	c3 01       	movw	r24, r6
    29c0:	8e 53       	subi	r24, 0x3E	; 62
    29c2:	9f 4f       	sbci	r25, 0xFF	; 255
    29c4:	6c 01       	movw	r12, r24
    29c6:	51 01       	movw	r10, r2
			for(int r=0;r<4;r++)
    29c8:	00 e0       	ldi	r16, 0x00	; 0
    29ca:	10 e0       	ldi	r17, 0x00	; 0
			{
				if(PINB&(1<<r))
    29cc:	86 b3       	in	r24, 0x16	; 22
    29ce:	90 e0       	ldi	r25, 0x00	; 0
    29d0:	00 2e       	mov	r0, r16
    29d2:	02 c0       	rjmp	.+4      	; 0x29d8 <_Z7simpsonv+0xe2>
    29d4:	95 95       	asr	r25
    29d6:	87 95       	ror	r24
    29d8:	0a 94       	dec	r0
    29da:	e2 f7       	brpl	.-8      	; 0x29d4 <_Z7simpsonv+0xde>
    29dc:	80 ff       	sbrs	r24, 0
    29de:	43 c0       	rjmp	.+134    	; 0x2a66 <_Z7simpsonv+0x170>
				{
					if(mat[r][c-4]=='C')
    29e0:	f6 01       	movw	r30, r12
    29e2:	80 81       	ld	r24, Z
    29e4:	83 34       	cpi	r24, 0x43	; 67
    29e6:	99 f4       	brne	.+38     	; 0x2a0e <_Z7simpsonv+0x118>
					{
						len=0;
						s[0]=0;
    29e8:	1c ae       	std	Y+60, r1	; 0x3c
						where=1;
						LCD_Clear();
    29ea:	0e 94 2d 03 	call	0x65a	; 0x65a <_Z9LCD_Clearv>
						}
						s[len]=mat[r][c-4];
						len+=1;
						s[len]=0;
					}
					DisplayText(1,where,s);
    29ee:	e5 96       	adiw	r28, 0x35	; 53
    29f0:	4f ad       	ldd	r20, Y+63	; 0x3f
    29f2:	e5 97       	sbiw	r28, 0x35	; 53
    29f4:	e6 96       	adiw	r28, 0x36	; 54
    29f6:	5f ad       	ldd	r21, Y+63	; 0x3f
    29f8:	e6 97       	sbiw	r28, 0x36	; 54
    29fa:	61 e0       	ldi	r22, 0x01	; 1
    29fc:	81 e0       	ldi	r24, 0x01	; 1
    29fe:	0e 94 b7 03 	call	0x76e	; 0x76e <_Z11DisplayTexthhPc>
				{
					if(mat[r][c-4]=='C')
					{
						len=0;
						s[0]=0;
						where=1;
    2a02:	88 24       	eor	r8, r8
    2a04:	83 94       	inc	r8
    2a06:	91 2c       	mov	r9, r1
			{
				if(PINB&(1<<r))
				{
					if(mat[r][c-4]=='C')
					{
						len=0;
    2a08:	e1 2c       	mov	r14, r1
    2a0a:	f1 2c       	mov	r15, r1
    2a0c:	22 c0       	rjmp	.+68     	; 0x2a52 <_Z7simpsonv+0x15c>
						where=1;
						LCD_Clear();
					}
					else
					{
						if(mat[r][c-4]=='=')
    2a0e:	8d 33       	cpi	r24, 0x3D	; 61
    2a10:	09 f4       	brne	.+2      	; 0x2a14 <_Z7simpsonv+0x11e>
    2a12:	df c0       	rjmp	.+446    	; 0x2bd2 <_Z7simpsonv+0x2dc>
						{
							done = 1;
							break;
						}
						s[len]=mat[r][c-4];
    2a14:	f2 01       	movw	r30, r4
    2a16:	ee 0d       	add	r30, r14
    2a18:	ff 1d       	adc	r31, r15
    2a1a:	80 83       	st	Z, r24
						len+=1;
    2a1c:	ff ef       	ldi	r31, 0xFF	; 255
    2a1e:	ef 1a       	sub	r14, r31
    2a20:	ff 0a       	sbc	r15, r31
						s[len]=0;
    2a22:	f2 01       	movw	r30, r4
    2a24:	ee 0d       	add	r30, r14
    2a26:	ff 1d       	adc	r31, r15
    2a28:	10 82       	st	Z, r1
					}
					DisplayText(1,where,s);
    2a2a:	e5 96       	adiw	r28, 0x35	; 53
    2a2c:	4f ad       	ldd	r20, Y+63	; 0x3f
    2a2e:	e5 97       	sbiw	r28, 0x35	; 53
    2a30:	e6 96       	adiw	r28, 0x36	; 54
    2a32:	5f ad       	ldd	r21, Y+63	; 0x3f
    2a34:	e6 97       	sbiw	r28, 0x36	; 54
    2a36:	68 2d       	mov	r22, r8
    2a38:	81 e0       	ldi	r24, 0x01	; 1
    2a3a:	0e 94 b7 03 	call	0x76e	; 0x76e <_Z11DisplayTexthhPc>
					if(len==20)
    2a3e:	24 e1       	ldi	r18, 0x14	; 20
    2a40:	e2 16       	cp	r14, r18
    2a42:	f1 04       	cpc	r15, r1
    2a44:	31 f4       	brne	.+12     	; 0x2a52 <_Z7simpsonv+0x15c>
					{
						where+=12;
    2a46:	8c e0       	ldi	r24, 0x0C	; 12
    2a48:	88 0e       	add	r8, r24
    2a4a:	91 1c       	adc	r9, r1
						len=0;
						s[0]=0;
    2a4c:	1c ae       	std	Y+60, r1	; 0x3c
					}
					DisplayText(1,where,s);
					if(len==20)
					{
						where+=12;
						len=0;
    2a4e:	e1 2c       	mov	r14, r1
    2a50:	f1 2c       	mov	r15, r1
	#else
		//round up by default
		__ticks_dc = (uint32_t)(ceil(fabs(__tmp)));
	#endif

	__builtin_avr_delay_cycles(__ticks_dc);
    2a52:	9f ef       	ldi	r25, 0xFF	; 255
    2a54:	e4 e3       	ldi	r30, 0x34	; 52
    2a56:	fc e0       	ldi	r31, 0x0C	; 12
    2a58:	91 50       	subi	r25, 0x01	; 1
    2a5a:	e0 40       	sbci	r30, 0x00	; 0
    2a5c:	f0 40       	sbci	r31, 0x00	; 0
    2a5e:	e1 f7       	brne	.-8      	; 0x2a58 <_Z7simpsonv+0x162>
    2a60:	00 c0       	rjmp	.+0      	; 0x2a62 <_Z7simpsonv+0x16c>
    2a62:	00 00       	nop
    2a64:	66 c0       	rjmp	.+204    	; 0x2b32 <_Z7simpsonv+0x23c>
						s[0]=0;
					}
					_delay_ms(500);
				}
				else if(PINA&(1<<r))
    2a66:	89 b3       	in	r24, 0x19	; 25
    2a68:	90 e0       	ldi	r25, 0x00	; 0
    2a6a:	00 2e       	mov	r0, r16
    2a6c:	02 c0       	rjmp	.+4      	; 0x2a72 <_Z7simpsonv+0x17c>
    2a6e:	95 95       	asr	r25
    2a70:	87 95       	ror	r24
    2a72:	0a 94       	dec	r0
    2a74:	e2 f7       	brpl	.-8      	; 0x2a6e <_Z7simpsonv+0x178>
    2a76:	80 ff       	sbrs	r24, 0
    2a78:	5c c0       	rjmp	.+184    	; 0x2b32 <_Z7simpsonv+0x23c>
				{
					if(mat2[r][c-4][0]=='<')
    2a7a:	f5 01       	movw	r30, r10
    2a7c:	80 81       	ld	r24, Z
    2a7e:	8c 33       	cpi	r24, 0x3C	; 60
    2a80:	49 f5       	brne	.+82     	; 0x2ad4 <_Z7simpsonv+0x1de>
					{
						if(len==0){
    2a82:	e1 14       	cp	r14, r1
    2a84:	f1 04       	cpc	r15, r1
    2a86:	51 f4       	brne	.+20     	; 0x2a9c <_Z7simpsonv+0x1a6>
    2a88:	ff ef       	ldi	r31, 0xFF	; 255
    2a8a:	24 e3       	ldi	r18, 0x34	; 52
    2a8c:	8c e0       	ldi	r24, 0x0C	; 12
    2a8e:	f1 50       	subi	r31, 0x01	; 1
    2a90:	20 40       	sbci	r18, 0x00	; 0
    2a92:	80 40       	sbci	r24, 0x00	; 0
    2a94:	e1 f7       	brne	.-8      	; 0x2a8e <_Z7simpsonv+0x198>
    2a96:	00 c0       	rjmp	.+0      	; 0x2a98 <_Z7simpsonv+0x1a2>
    2a98:	00 00       	nop
    2a9a:	4b c0       	rjmp	.+150    	; 0x2b32 <_Z7simpsonv+0x23c>
							_delay_ms(500);
							continue;
						}
						s[len-1]=' ';
    2a9c:	91 e0       	ldi	r25, 0x01	; 1
    2a9e:	e9 1a       	sub	r14, r25
    2aa0:	f1 08       	sbc	r15, r1
    2aa2:	f2 01       	movw	r30, r4
    2aa4:	ee 0d       	add	r30, r14
    2aa6:	ff 1d       	adc	r31, r15
    2aa8:	e8 96       	adiw	r28, 0x38	; 56
    2aaa:	ff af       	std	Y+63, r31	; 0x3f
    2aac:	ee af       	std	Y+62, r30	; 0x3e
    2aae:	e8 97       	sbiw	r28, 0x38	; 56
    2ab0:	20 e2       	ldi	r18, 0x20	; 32
    2ab2:	20 83       	st	Z, r18
						DisplayText(1,where,s);
    2ab4:	e5 96       	adiw	r28, 0x35	; 53
    2ab6:	4f ad       	ldd	r20, Y+63	; 0x3f
    2ab8:	e5 97       	sbiw	r28, 0x35	; 53
    2aba:	e6 96       	adiw	r28, 0x36	; 54
    2abc:	5f ad       	ldd	r21, Y+63	; 0x3f
    2abe:	e6 97       	sbiw	r28, 0x36	; 54
    2ac0:	68 2d       	mov	r22, r8
    2ac2:	81 e0       	ldi	r24, 0x01	; 1
    2ac4:	0e 94 b7 03 	call	0x76e	; 0x76e <_Z11DisplayTexthhPc>
						len--;
						s[len]=0;
    2ac8:	e8 96       	adiw	r28, 0x38	; 56
    2aca:	ee ad       	ldd	r30, Y+62	; 0x3e
    2acc:	ff ad       	ldd	r31, Y+63	; 0x3f
    2ace:	e8 97       	sbiw	r28, 0x38	; 56
    2ad0:	10 82       	st	Z, r1
    2ad2:	12 c0       	rjmp	.+36     	; 0x2af8 <_Z7simpsonv+0x202>
					}
					else
					{
						append(s , len , mat2[r][c-4]);
    2ad4:	a5 01       	movw	r20, r10
    2ad6:	b7 01       	movw	r22, r14
    2ad8:	e5 96       	adiw	r28, 0x35	; 53
    2ada:	8f ad       	ldd	r24, Y+63	; 0x3f
    2adc:	e5 97       	sbiw	r28, 0x35	; 53
    2ade:	e6 96       	adiw	r28, 0x36	; 54
    2ae0:	9f ad       	ldd	r25, Y+63	; 0x3f
    2ae2:	e6 97       	sbiw	r28, 0x36	; 54
    2ae4:	0e 94 62 0d 	call	0x1ac4	; 0x1ac4 <_Z6appendPciS_>
						len = strlen(s);
    2ae8:	f2 01       	movw	r30, r4
    2aea:	01 90       	ld	r0, Z+
    2aec:	00 20       	and	r0, r0
    2aee:	e9 f7       	brne	.-6      	; 0x2aea <_Z7simpsonv+0x1f4>
    2af0:	31 97       	sbiw	r30, 0x01	; 1
    2af2:	7f 01       	movw	r14, r30
    2af4:	e4 18       	sub	r14, r4
    2af6:	f5 08       	sbc	r15, r5
					}
					DisplayText(1,where,s);
    2af8:	e5 96       	adiw	r28, 0x35	; 53
    2afa:	4f ad       	ldd	r20, Y+63	; 0x3f
    2afc:	e5 97       	sbiw	r28, 0x35	; 53
    2afe:	e6 96       	adiw	r28, 0x36	; 54
    2b00:	5f ad       	ldd	r21, Y+63	; 0x3f
    2b02:	e6 97       	sbiw	r28, 0x36	; 54
    2b04:	68 2d       	mov	r22, r8
    2b06:	81 e0       	ldi	r24, 0x01	; 1
    2b08:	0e 94 b7 03 	call	0x76e	; 0x76e <_Z11DisplayTexthhPc>
					if(len==20)
    2b0c:	f4 e1       	ldi	r31, 0x14	; 20
    2b0e:	ef 16       	cp	r14, r31
    2b10:	f1 04       	cpc	r15, r1
    2b12:	31 f4       	brne	.+12     	; 0x2b20 <_Z7simpsonv+0x22a>
					{
						where+=12;
    2b14:	2c e0       	ldi	r18, 0x0C	; 12
    2b16:	82 0e       	add	r8, r18
    2b18:	91 1c       	adc	r9, r1
						len=0;
						s[0]=0;
    2b1a:	1c ae       	std	Y+60, r1	; 0x3c
					}
					DisplayText(1,where,s);
					if(len==20)
					{
						where+=12;
						len=0;
    2b1c:	e1 2c       	mov	r14, r1
    2b1e:	f1 2c       	mov	r15, r1
    2b20:	8f ef       	ldi	r24, 0xFF	; 255
    2b22:	94 e3       	ldi	r25, 0x34	; 52
    2b24:	ec e0       	ldi	r30, 0x0C	; 12
    2b26:	81 50       	subi	r24, 0x01	; 1
    2b28:	90 40       	sbci	r25, 0x00	; 0
    2b2a:	e0 40       	sbci	r30, 0x00	; 0
    2b2c:	e1 f7       	brne	.-8      	; 0x2b26 <_Z7simpsonv+0x230>
    2b2e:	00 c0       	rjmp	.+0      	; 0x2b30 <_Z7simpsonv+0x23a>
    2b30:	00 00       	nop
		bool done = 0;
		for(int c=4;c<8;c++)
		{
			PORTB=1<<c;
			PORTA=1<<c;
			for(int r=0;r<4;r++)
    2b32:	0f 5f       	subi	r16, 0xFF	; 255
    2b34:	1f 4f       	sbci	r17, 0xFF	; 255
    2b36:	f8 e1       	ldi	r31, 0x18	; 24
    2b38:	af 0e       	add	r10, r31
    2b3a:	b1 1c       	adc	r11, r1
    2b3c:	24 e0       	ldi	r18, 0x04	; 4
    2b3e:	c2 0e       	add	r12, r18
    2b40:	d1 1c       	adc	r13, r1
    2b42:	04 30       	cpi	r16, 0x04	; 4
    2b44:	11 05       	cpc	r17, r1
    2b46:	09 f0       	breq	.+2      	; 0x2b4a <_Z7simpsonv+0x254>
    2b48:	41 cf       	rjmp	.-382    	; 0x29cc <_Z7simpsonv+0xd6>
    2b4a:	8f e1       	ldi	r24, 0x1F	; 31
    2b4c:	9e e4       	ldi	r25, 0x4E	; 78
    2b4e:	01 97       	sbiw	r24, 0x01	; 1
    2b50:	f1 f7       	brne	.-4      	; 0x2b4e <_Z7simpsonv+0x258>
    2b52:	00 c0       	rjmp	.+0      	; 0x2b54 <_Z7simpsonv+0x25e>
    2b54:	00 00       	nop
	int len=0;
	int where=12;
	while (1)
	{
		bool done = 0;
		for(int c=4;c<8;c++)
    2b56:	9f ef       	ldi	r25, 0xFF	; 255
    2b58:	69 1a       	sub	r6, r25
    2b5a:	79 0a       	sbc	r7, r25
    2b5c:	e6 e0       	ldi	r30, 0x06	; 6
    2b5e:	2e 0e       	add	r2, r30
    2b60:	31 1c       	adc	r3, r1
    2b62:	f8 e0       	ldi	r31, 0x08	; 8
    2b64:	6f 16       	cp	r6, r31
    2b66:	71 04       	cpc	r7, r1
    2b68:	09 f0       	breq	.+2      	; 0x2b6c <_Z7simpsonv+0x276>
    2b6a:	1f cf       	rjmp	.-450    	; 0x29aa <_Z7simpsonv+0xb4>
    2b6c:	14 cf       	rjmp	.-472    	; 0x2996 <_Z7simpsonv+0xa0>
	show_text(s,12);
	//wait for equal
	bool done = 0;
	while (1)
	{
		for(int c=4;c<8;c++)
    2b6e:	44 e0       	ldi	r20, 0x04	; 4
    2b70:	50 e0       	ldi	r21, 0x00	; 0
		{
			PORTB=1<<c;
    2b72:	cb 01       	movw	r24, r22
    2b74:	04 2e       	mov	r0, r20
    2b76:	02 c0       	rjmp	.+4      	; 0x2b7c <_Z7simpsonv+0x286>
    2b78:	88 0f       	add	r24, r24
    2b7a:	99 1f       	adc	r25, r25
    2b7c:	0a 94       	dec	r0
    2b7e:	e2 f7       	brpl	.-8      	; 0x2b78 <_Z7simpsonv+0x282>
    2b80:	88 bb       	out	0x18, r24	; 24
    2b82:	fa 01       	movw	r30, r20
    2b84:	ee 53       	subi	r30, 0x3E	; 62
    2b86:	ff 4f       	sbci	r31, 0xFF	; 255
			for(int r=0;r<4;r++)
    2b88:	20 e0       	ldi	r18, 0x00	; 0
    2b8a:	30 e0       	ldi	r19, 0x00	; 0
			{
				if(PINB&(1<<r))
    2b8c:	86 b3       	in	r24, 0x16	; 22
    2b8e:	90 e0       	ldi	r25, 0x00	; 0
    2b90:	02 2e       	mov	r0, r18
    2b92:	02 c0       	rjmp	.+4      	; 0x2b98 <_Z7simpsonv+0x2a2>
    2b94:	95 95       	asr	r25
    2b96:	87 95       	ror	r24
    2b98:	0a 94       	dec	r0
    2b9a:	e2 f7       	brpl	.-8      	; 0x2b94 <_Z7simpsonv+0x29e>
    2b9c:	80 ff       	sbrs	r24, 0
    2b9e:	03 c0       	rjmp	.+6      	; 0x2ba6 <_Z7simpsonv+0x2b0>
				{
					if(mat[r][c-4]=='=')
    2ba0:	80 81       	ld	r24, Z
    2ba2:	8d 33       	cpi	r24, 0x3D	; 61
    2ba4:	61 f0       	breq	.+24     	; 0x2bbe <_Z7simpsonv+0x2c8>
	while (1)
	{
		for(int c=4;c<8;c++)
		{
			PORTB=1<<c;
			for(int r=0;r<4;r++)
    2ba6:	2f 5f       	subi	r18, 0xFF	; 255
    2ba8:	3f 4f       	sbci	r19, 0xFF	; 255
    2baa:	34 96       	adiw	r30, 0x04	; 4
    2bac:	24 30       	cpi	r18, 0x04	; 4
    2bae:	31 05       	cpc	r19, r1
    2bb0:	69 f7       	brne	.-38     	; 0x2b8c <_Z7simpsonv+0x296>
	show_text(s,12);
	//wait for equal
	bool done = 0;
	while (1)
	{
		for(int c=4;c<8;c++)
    2bb2:	4f 5f       	subi	r20, 0xFF	; 255
    2bb4:	5f 4f       	sbci	r21, 0xFF	; 255
    2bb6:	48 30       	cpi	r20, 0x08	; 8
    2bb8:	51 05       	cpc	r21, r1
    2bba:	d9 f6       	brne	.-74     	; 0x2b72 <_Z7simpsonv+0x27c>
    2bbc:	d8 cf       	rjmp	.-80     	; 0x2b6e <_Z7simpsonv+0x278>
    2bbe:	2f ef       	ldi	r18, 0xFF	; 255
    2bc0:	84 e3       	ldi	r24, 0x34	; 52
    2bc2:	9c e0       	ldi	r25, 0x0C	; 12
    2bc4:	21 50       	subi	r18, 0x01	; 1
    2bc6:	80 40       	sbci	r24, 0x00	; 0
    2bc8:	90 40       	sbci	r25, 0x00	; 0
    2bca:	e1 f7       	brne	.-8      	; 0x2bc4 <_Z7simpsonv+0x2ce>
    2bcc:	00 c0       	rjmp	.+0      	; 0x2bce <_Z7simpsonv+0x2d8>
    2bce:	00 00       	nop
		{
			break;
		}
	}
	_delay_ms(500);
}
    2bd0:	4e c0       	rjmp	.+156    	; 0x2c6e <_Z7simpsonv+0x378>
    2bd2:	ef e1       	ldi	r30, 0x1F	; 31
    2bd4:	fe e4       	ldi	r31, 0x4E	; 78
    2bd6:	31 97       	sbiw	r30, 0x01	; 1
    2bd8:	f1 f7       	brne	.-4      	; 0x2bd6 <_Z7simpsonv+0x2e0>
    2bda:	00 c0       	rjmp	.+0      	; 0x2bdc <_Z7simpsonv+0x2e6>
    2bdc:	00 00       	nop
				break;
		}
		if(done)
			break;
	}
	LCD_Clear();
    2bde:	0e 94 2d 03 	call	0x65a	; 0x65a <_Z9LCD_Clearv>
	double l , r;
	DisplayText(1,1,text2);
    2be2:	ae 01       	movw	r20, r28
    2be4:	4a 5e       	subi	r20, 0xEA	; 234
    2be6:	5f 4f       	sbci	r21, 0xFF	; 255
    2be8:	61 e0       	ldi	r22, 0x01	; 1
    2bea:	81 e0       	ldi	r24, 0x01	; 1
    2bec:	0e 94 b7 03 	call	0x76e	; 0x76e <_Z11DisplayTexthhPc>
	l = double_num_input(12);
    2bf0:	8c e0       	ldi	r24, 0x0C	; 12
    2bf2:	90 e0       	ldi	r25, 0x00	; 0
    2bf4:	0e 94 d3 0f 	call	0x1fa6	; 0x1fa6 <_Z16double_num_inputi>
    2bf8:	6b 01       	movw	r12, r22
    2bfa:	7c 01       	movw	r14, r24
	LCD_Clear();
    2bfc:	0e 94 2d 03 	call	0x65a	; 0x65a <_Z9LCD_Clearv>
	DisplayText(1,1,text3);
    2c00:	ae 01       	movw	r20, r28
    2c02:	47 5d       	subi	r20, 0xD7	; 215
    2c04:	5f 4f       	sbci	r21, 0xFF	; 255
    2c06:	61 e0       	ldi	r22, 0x01	; 1
    2c08:	81 e0       	ldi	r24, 0x01	; 1
    2c0a:	0e 94 b7 03 	call	0x76e	; 0x76e <_Z11DisplayTexthhPc>
	r = double_num_input(12);
    2c0e:	8c e0       	ldi	r24, 0x0C	; 12
    2c10:	90 e0       	ldi	r25, 0x00	; 0
    2c12:	0e 94 d3 0f 	call	0x1fa6	; 0x1fa6 <_Z16double_num_inputi>
    2c16:	8b 01       	movw	r16, r22
    2c18:	9c 01       	movw	r18, r24
	double ans = simpson_integration(s,l,r);
    2c1a:	b7 01       	movw	r22, r14
    2c1c:	a6 01       	movw	r20, r12
    2c1e:	ce 01       	movw	r24, r28
    2c20:	cc 96       	adiw	r24, 0x3c	; 60
    2c22:	0e 94 ed 0b 	call	0x17da	; 0x17da <_Z19simpson_integrationPcdd>
    2c26:	6b 01       	movw	r12, r22
    2c28:	7c 01       	movw	r14, r24
	
	//printing ans
	char text[] = "Ans =";
    2c2a:	86 e0       	ldi	r24, 0x06	; 6
    2c2c:	e3 ea       	ldi	r30, 0xA3	; 163
    2c2e:	f2 e0       	ldi	r31, 0x02	; 2
    2c30:	de 01       	movw	r26, r28
    2c32:	a2 59       	subi	r26, 0x92	; 146
    2c34:	bf 4f       	sbci	r27, 0xFF	; 255
    2c36:	01 90       	ld	r0, Z+
    2c38:	0d 92       	st	X+, r0
    2c3a:	8a 95       	dec	r24
    2c3c:	e1 f7       	brne	.-8      	; 0x2c36 <_Z7simpsonv+0x340>
	show_text(text,1);
    2c3e:	61 e0       	ldi	r22, 0x01	; 1
    2c40:	70 e0       	ldi	r23, 0x00	; 0
    2c42:	ce 01       	movw	r24, r28
    2c44:	82 59       	subi	r24, 0x92	; 146
    2c46:	9f 4f       	sbci	r25, 0xFF	; 255
    2c48:	0e 94 ea 10 	call	0x21d4	; 0x21d4 <_Z9show_textPci>
	dtostrf(ans,1,2,s);
    2c4c:	8e 01       	movw	r16, r28
    2c4e:	04 5c       	subi	r16, 0xC4	; 196
    2c50:	1f 4f       	sbci	r17, 0xFF	; 255
    2c52:	22 e0       	ldi	r18, 0x02	; 2
    2c54:	41 e0       	ldi	r20, 0x01	; 1
    2c56:	c7 01       	movw	r24, r14
    2c58:	b6 01       	movw	r22, r12
    2c5a:	0e 94 67 1c 	call	0x38ce	; 0x38ce <dtostrf>
	show_text(s,12);
    2c5e:	6c e0       	ldi	r22, 0x0C	; 12
    2c60:	70 e0       	ldi	r23, 0x00	; 0
    2c62:	c8 01       	movw	r24, r16
    2c64:	0e 94 ea 10 	call	0x21d4	; 0x21d4 <_Z9show_textPci>
	bool done = 0;
	while (1)
	{
		for(int c=4;c<8;c++)
		{
			PORTB=1<<c;
    2c68:	61 e0       	ldi	r22, 0x01	; 1
    2c6a:	70 e0       	ldi	r23, 0x00	; 0
    2c6c:	80 cf       	rjmp	.-256    	; 0x2b6e <_Z7simpsonv+0x278>
		{
			break;
		}
	}
	_delay_ms(500);
}
    2c6e:	c9 58       	subi	r28, 0x89	; 137
    2c70:	df 4f       	sbci	r29, 0xFF	; 255
    2c72:	0f b6       	in	r0, 0x3f	; 63
    2c74:	f8 94       	cli
    2c76:	de bf       	out	0x3e, r29	; 62
    2c78:	0f be       	out	0x3f, r0	; 63
    2c7a:	cd bf       	out	0x3d, r28	; 61
    2c7c:	df 91       	pop	r29
    2c7e:	cf 91       	pop	r28
    2c80:	1f 91       	pop	r17
    2c82:	0f 91       	pop	r16
    2c84:	ff 90       	pop	r15
    2c86:	ef 90       	pop	r14
    2c88:	df 90       	pop	r13
    2c8a:	cf 90       	pop	r12
    2c8c:	bf 90       	pop	r11
    2c8e:	af 90       	pop	r10
    2c90:	9f 90       	pop	r9
    2c92:	8f 90       	pop	r8
    2c94:	7f 90       	pop	r7
    2c96:	6f 90       	pop	r6
    2c98:	5f 90       	pop	r5
    2c9a:	4f 90       	pop	r4
    2c9c:	3f 90       	pop	r3
    2c9e:	2f 90       	pop	r2
    2ca0:	08 95       	ret

00002ca2 <main>:
int main(void)
{
	InitLCD();
    2ca2:	0e 94 7c 02 	call	0x4f8	; 0x4f8 <_Z7InitLCDv>
	LCD_Clear();
    2ca6:	0e 94 2d 03 	call	0x65a	; 0x65a <_Z9LCD_Clearv>
	initial_page();
    2caa:	0e 94 b5 0c 	call	0x196a	; 0x196a <_Z12initial_pagev>
	DDRB=0xFF;
    2cae:	8f ef       	ldi	r24, 0xFF	; 255
    2cb0:	87 bb       	out	0x17, r24	; 23
	DDRA=0xFF;
    2cb2:	8a bb       	out	0x1a, r24	; 26
	
	//take input
	char input = mode_selector();
    2cb4:	0e 94 0a 0d 	call	0x1a14	; 0x1a14 <_Z13mode_selectorv>
	if(input=='1')
    2cb8:	81 33       	cpi	r24, 0x31	; 49
    2cba:	11 f4       	brne	.+4      	; 0x2cc0 <main+0x1e>
	{
		calculator();	
    2cbc:	0e 94 76 0d 	call	0x1aec	; 0x1aec <_Z10calculatorv>
	}
	else if(input=='2')
    2cc0:	82 33       	cpi	r24, 0x32	; 50
    2cc2:	19 f4       	brne	.+6      	; 0x2cca <main+0x28>
	{
		gauss();
    2cc4:	0e 94 55 11 	call	0x22aa	; 0x22aa <_Z5gaussv>
    2cc8:	04 c0       	rjmp	.+8      	; 0x2cd2 <main+0x30>
	}
	else if(input=='3')
	{
		newton_raphson();
	}
	else if(input=='4')
    2cca:	84 33       	cpi	r24, 0x34	; 52
    2ccc:	11 f4       	brne	.+4      	; 0x2cd2 <main+0x30>
	{
		simpson();
    2cce:	0e 94 7b 14 	call	0x28f6	; 0x28f6 <_Z7simpsonv>
	}
	
    2cd2:	80 e0       	ldi	r24, 0x00	; 0
    2cd4:	90 e0       	ldi	r25, 0x00	; 0
    2cd6:	08 95       	ret

00002cd8 <acos>:
    2cd8:	9f 93       	push	r25
    2cda:	9f 77       	andi	r25, 0x7F	; 127
    2cdc:	0e 94 8b 18 	call	0x3116	; 0x3116 <__fp_arccos>
    2ce0:	0f 90       	pop	r0
    2ce2:	00 20       	and	r0, r0
    2ce4:	42 f4       	brpl	.+16     	; 0x2cf6 <acos+0x1e>
    2ce6:	90 58       	subi	r25, 0x80	; 128
    2ce8:	a2 ea       	ldi	r26, 0xA2	; 162
    2cea:	2a ed       	ldi	r18, 0xDA	; 218
    2cec:	3f e0       	ldi	r19, 0x0F	; 15
    2cee:	49 e4       	ldi	r20, 0x49	; 73
    2cf0:	50 e4       	ldi	r21, 0x40	; 64
    2cf2:	0e 94 95 16 	call	0x2d2a	; 0x2d2a <__addsf3x>
    2cf6:	0c 94 75 19 	jmp	0x32ea	; 0x32ea <__fp_round>

00002cfa <__subsf3>:
    2cfa:	50 58       	subi	r21, 0x80	; 128

00002cfc <__addsf3>:
    2cfc:	bb 27       	eor	r27, r27
    2cfe:	aa 27       	eor	r26, r26
    2d00:	0e 94 95 16 	call	0x2d2a	; 0x2d2a <__addsf3x>
    2d04:	0c 94 75 19 	jmp	0x32ea	; 0x32ea <__fp_round>
    2d08:	0e 94 3c 19 	call	0x3278	; 0x3278 <__fp_pscA>
    2d0c:	38 f0       	brcs	.+14     	; 0x2d1c <__addsf3+0x20>
    2d0e:	0e 94 43 19 	call	0x3286	; 0x3286 <__fp_pscB>
    2d12:	20 f0       	brcs	.+8      	; 0x2d1c <__addsf3+0x20>
    2d14:	39 f4       	brne	.+14     	; 0x2d24 <__addsf3+0x28>
    2d16:	9f 3f       	cpi	r25, 0xFF	; 255
    2d18:	19 f4       	brne	.+6      	; 0x2d20 <__addsf3+0x24>
    2d1a:	26 f4       	brtc	.+8      	; 0x2d24 <__addsf3+0x28>
    2d1c:	0c 94 fe 18 	jmp	0x31fc	; 0x31fc <__fp_nan>
    2d20:	0e f4       	brtc	.+2      	; 0x2d24 <__addsf3+0x28>
    2d22:	e0 95       	com	r30
    2d24:	e7 fb       	bst	r30, 7
    2d26:	0c 94 cf 18 	jmp	0x319e	; 0x319e <__fp_inf>

00002d2a <__addsf3x>:
    2d2a:	e9 2f       	mov	r30, r25
    2d2c:	0e 94 9a 19 	call	0x3334	; 0x3334 <__fp_split3>
    2d30:	58 f3       	brcs	.-42     	; 0x2d08 <__addsf3+0xc>
    2d32:	ba 17       	cp	r27, r26
    2d34:	62 07       	cpc	r22, r18
    2d36:	73 07       	cpc	r23, r19
    2d38:	84 07       	cpc	r24, r20
    2d3a:	95 07       	cpc	r25, r21
    2d3c:	20 f0       	brcs	.+8      	; 0x2d46 <__addsf3x+0x1c>
    2d3e:	79 f4       	brne	.+30     	; 0x2d5e <__addsf3x+0x34>
    2d40:	a6 f5       	brtc	.+104    	; 0x2daa <__addsf3x+0x80>
    2d42:	0c 94 d4 19 	jmp	0x33a8	; 0x33a8 <__fp_zero>
    2d46:	0e f4       	brtc	.+2      	; 0x2d4a <__addsf3x+0x20>
    2d48:	e0 95       	com	r30
    2d4a:	0b 2e       	mov	r0, r27
    2d4c:	ba 2f       	mov	r27, r26
    2d4e:	a0 2d       	mov	r26, r0
    2d50:	0b 01       	movw	r0, r22
    2d52:	b9 01       	movw	r22, r18
    2d54:	90 01       	movw	r18, r0
    2d56:	0c 01       	movw	r0, r24
    2d58:	ca 01       	movw	r24, r20
    2d5a:	a0 01       	movw	r20, r0
    2d5c:	11 24       	eor	r1, r1
    2d5e:	ff 27       	eor	r31, r31
    2d60:	59 1b       	sub	r21, r25
    2d62:	99 f0       	breq	.+38     	; 0x2d8a <__addsf3x+0x60>
    2d64:	59 3f       	cpi	r21, 0xF9	; 249
    2d66:	50 f4       	brcc	.+20     	; 0x2d7c <__addsf3x+0x52>
    2d68:	50 3e       	cpi	r21, 0xE0	; 224
    2d6a:	68 f1       	brcs	.+90     	; 0x2dc6 <__addsf3x+0x9c>
    2d6c:	1a 16       	cp	r1, r26
    2d6e:	f0 40       	sbci	r31, 0x00	; 0
    2d70:	a2 2f       	mov	r26, r18
    2d72:	23 2f       	mov	r18, r19
    2d74:	34 2f       	mov	r19, r20
    2d76:	44 27       	eor	r20, r20
    2d78:	58 5f       	subi	r21, 0xF8	; 248
    2d7a:	f3 cf       	rjmp	.-26     	; 0x2d62 <__addsf3x+0x38>
    2d7c:	46 95       	lsr	r20
    2d7e:	37 95       	ror	r19
    2d80:	27 95       	ror	r18
    2d82:	a7 95       	ror	r26
    2d84:	f0 40       	sbci	r31, 0x00	; 0
    2d86:	53 95       	inc	r21
    2d88:	c9 f7       	brne	.-14     	; 0x2d7c <__addsf3x+0x52>
    2d8a:	7e f4       	brtc	.+30     	; 0x2daa <__addsf3x+0x80>
    2d8c:	1f 16       	cp	r1, r31
    2d8e:	ba 0b       	sbc	r27, r26
    2d90:	62 0b       	sbc	r22, r18
    2d92:	73 0b       	sbc	r23, r19
    2d94:	84 0b       	sbc	r24, r20
    2d96:	ba f0       	brmi	.+46     	; 0x2dc6 <__addsf3x+0x9c>
    2d98:	91 50       	subi	r25, 0x01	; 1
    2d9a:	a1 f0       	breq	.+40     	; 0x2dc4 <__addsf3x+0x9a>
    2d9c:	ff 0f       	add	r31, r31
    2d9e:	bb 1f       	adc	r27, r27
    2da0:	66 1f       	adc	r22, r22
    2da2:	77 1f       	adc	r23, r23
    2da4:	88 1f       	adc	r24, r24
    2da6:	c2 f7       	brpl	.-16     	; 0x2d98 <__addsf3x+0x6e>
    2da8:	0e c0       	rjmp	.+28     	; 0x2dc6 <__addsf3x+0x9c>
    2daa:	ba 0f       	add	r27, r26
    2dac:	62 1f       	adc	r22, r18
    2dae:	73 1f       	adc	r23, r19
    2db0:	84 1f       	adc	r24, r20
    2db2:	48 f4       	brcc	.+18     	; 0x2dc6 <__addsf3x+0x9c>
    2db4:	87 95       	ror	r24
    2db6:	77 95       	ror	r23
    2db8:	67 95       	ror	r22
    2dba:	b7 95       	ror	r27
    2dbc:	f7 95       	ror	r31
    2dbe:	9e 3f       	cpi	r25, 0xFE	; 254
    2dc0:	08 f0       	brcs	.+2      	; 0x2dc4 <__addsf3x+0x9a>
    2dc2:	b0 cf       	rjmp	.-160    	; 0x2d24 <__addsf3+0x28>
    2dc4:	93 95       	inc	r25
    2dc6:	88 0f       	add	r24, r24
    2dc8:	08 f0       	brcs	.+2      	; 0x2dcc <__addsf3x+0xa2>
    2dca:	99 27       	eor	r25, r25
    2dcc:	ee 0f       	add	r30, r30
    2dce:	97 95       	ror	r25
    2dd0:	87 95       	ror	r24
    2dd2:	08 95       	ret

00002dd4 <asin>:
    2dd4:	9f 93       	push	r25
    2dd6:	9f 77       	andi	r25, 0x7F	; 127
    2dd8:	ee e3       	ldi	r30, 0x3E	; 62
    2dda:	89 37       	cpi	r24, 0x79	; 121
    2ddc:	9e 07       	cpc	r25, r30
    2dde:	28 f4       	brcc	.+10     	; 0x2dea <asin+0x16>
    2de0:	e4 e5       	ldi	r30, 0x54	; 84
    2de2:	f0 e0       	ldi	r31, 0x00	; 0
    2de4:	0e 94 28 19 	call	0x3250	; 0x3250 <__fp_powsodd>
    2de8:	0c c0       	rjmp	.+24     	; 0x2e02 <asin+0x2e>
    2dea:	0e 94 8b 18 	call	0x3116	; 0x3116 <__fp_arccos>
    2dee:	90 58       	subi	r25, 0x80	; 128
    2df0:	a2 ea       	ldi	r26, 0xA2	; 162
    2df2:	2a ed       	ldi	r18, 0xDA	; 218
    2df4:	3f e0       	ldi	r19, 0x0F	; 15
    2df6:	49 ec       	ldi	r20, 0xC9	; 201
    2df8:	5f e3       	ldi	r21, 0x3F	; 63
    2dfa:	0e 94 95 16 	call	0x2d2a	; 0x2d2a <__addsf3x>
    2dfe:	0e 94 75 19 	call	0x32ea	; 0x32ea <__fp_round>
    2e02:	0f 90       	pop	r0
    2e04:	07 fc       	sbrc	r0, 7
    2e06:	90 58       	subi	r25, 0x80	; 128
    2e08:	08 95       	ret

00002e0a <atan>:
    2e0a:	df 93       	push	r29
    2e0c:	dd 27       	eor	r29, r29
    2e0e:	b9 2f       	mov	r27, r25
    2e10:	bf 77       	andi	r27, 0x7F	; 127
    2e12:	40 e8       	ldi	r20, 0x80	; 128
    2e14:	5f e3       	ldi	r21, 0x3F	; 63
    2e16:	16 16       	cp	r1, r22
    2e18:	17 06       	cpc	r1, r23
    2e1a:	48 07       	cpc	r20, r24
    2e1c:	5b 07       	cpc	r21, r27
    2e1e:	18 f4       	brcc	.+6      	; 0x2e26 <atan+0x1c>
    2e20:	d9 2f       	mov	r29, r25
    2e22:	0e 94 e0 19 	call	0x33c0	; 0x33c0 <inverse>
    2e26:	9f 93       	push	r25
    2e28:	8f 93       	push	r24
    2e2a:	7f 93       	push	r23
    2e2c:	6f 93       	push	r22
    2e2e:	0e 94 03 1c 	call	0x3806	; 0x3806 <square>
    2e32:	e8 e6       	ldi	r30, 0x68	; 104
    2e34:	f0 e0       	ldi	r31, 0x00	; 0
    2e36:	0e 94 01 19 	call	0x3202	; 0x3202 <__fp_powser>
    2e3a:	0e 94 75 19 	call	0x32ea	; 0x32ea <__fp_round>
    2e3e:	2f 91       	pop	r18
    2e40:	3f 91       	pop	r19
    2e42:	4f 91       	pop	r20
    2e44:	5f 91       	pop	r21
    2e46:	0e 94 c1 1a 	call	0x3582	; 0x3582 <__mulsf3x>
    2e4a:	dd 23       	and	r29, r29
    2e4c:	51 f0       	breq	.+20     	; 0x2e62 <atan+0x58>
    2e4e:	90 58       	subi	r25, 0x80	; 128
    2e50:	a2 ea       	ldi	r26, 0xA2	; 162
    2e52:	2a ed       	ldi	r18, 0xDA	; 218
    2e54:	3f e0       	ldi	r19, 0x0F	; 15
    2e56:	49 ec       	ldi	r20, 0xC9	; 201
    2e58:	5f e3       	ldi	r21, 0x3F	; 63
    2e5a:	d0 78       	andi	r29, 0x80	; 128
    2e5c:	5d 27       	eor	r21, r29
    2e5e:	0e 94 95 16 	call	0x2d2a	; 0x2d2a <__addsf3x>
    2e62:	df 91       	pop	r29
    2e64:	0c 94 75 19 	jmp	0x32ea	; 0x32ea <__fp_round>

00002e68 <__cmpsf2>:
    2e68:	0e 94 ab 18 	call	0x3156	; 0x3156 <__fp_cmp>
    2e6c:	08 f4       	brcc	.+2      	; 0x2e70 <__cmpsf2+0x8>
    2e6e:	81 e0       	ldi	r24, 0x01	; 1
    2e70:	08 95       	ret

00002e72 <cosh>:
    2e72:	90 68       	ori	r25, 0x80	; 128
    2e74:	0e 94 cf 17 	call	0x2f9e	; 0x2f9e <exp>
    2e78:	4f ef       	ldi	r20, 0xFF	; 255
    2e7a:	5f ef       	ldi	r21, 0xFF	; 255
    2e7c:	0e 94 ec 19 	call	0x33d8	; 0x33d8 <ldexp>
    2e80:	9f 93       	push	r25
    2e82:	8f 93       	push	r24
    2e84:	7f 93       	push	r23
    2e86:	6f 93       	push	r22
    2e88:	42 e0       	ldi	r20, 0x02	; 2
    2e8a:	50 e0       	ldi	r21, 0x00	; 0
    2e8c:	0e 94 ec 19 	call	0x33d8	; 0x33d8 <ldexp>
    2e90:	0e 94 e0 19 	call	0x33c0	; 0x33c0 <inverse>
    2e94:	2f 91       	pop	r18
    2e96:	3f 91       	pop	r19
    2e98:	4f 91       	pop	r20
    2e9a:	5f 91       	pop	r21
    2e9c:	0c 94 7e 16 	jmp	0x2cfc	; 0x2cfc <__addsf3>

00002ea0 <cos>:
    2ea0:	0e 94 4c 19 	call	0x3298	; 0x3298 <__fp_rempio2>
    2ea4:	e3 95       	inc	r30
    2ea6:	0c 94 86 19 	jmp	0x330c	; 0x330c <__fp_sinus>

00002eaa <__divsf3>:
    2eaa:	0e 94 69 17 	call	0x2ed2	; 0x2ed2 <__divsf3x>
    2eae:	0c 94 75 19 	jmp	0x32ea	; 0x32ea <__fp_round>
    2eb2:	0e 94 43 19 	call	0x3286	; 0x3286 <__fp_pscB>
    2eb6:	58 f0       	brcs	.+22     	; 0x2ece <__divsf3+0x24>
    2eb8:	0e 94 3c 19 	call	0x3278	; 0x3278 <__fp_pscA>
    2ebc:	40 f0       	brcs	.+16     	; 0x2ece <__divsf3+0x24>
    2ebe:	29 f4       	brne	.+10     	; 0x2eca <__divsf3+0x20>
    2ec0:	5f 3f       	cpi	r21, 0xFF	; 255
    2ec2:	29 f0       	breq	.+10     	; 0x2ece <__divsf3+0x24>
    2ec4:	0c 94 cf 18 	jmp	0x319e	; 0x319e <__fp_inf>
    2ec8:	51 11       	cpse	r21, r1
    2eca:	0c 94 d5 19 	jmp	0x33aa	; 0x33aa <__fp_szero>
    2ece:	0c 94 fe 18 	jmp	0x31fc	; 0x31fc <__fp_nan>

00002ed2 <__divsf3x>:
    2ed2:	0e 94 9a 19 	call	0x3334	; 0x3334 <__fp_split3>
    2ed6:	68 f3       	brcs	.-38     	; 0x2eb2 <__divsf3+0x8>

00002ed8 <__divsf3_pse>:
    2ed8:	99 23       	and	r25, r25
    2eda:	b1 f3       	breq	.-20     	; 0x2ec8 <__divsf3+0x1e>
    2edc:	55 23       	and	r21, r21
    2ede:	91 f3       	breq	.-28     	; 0x2ec4 <__divsf3+0x1a>
    2ee0:	95 1b       	sub	r25, r21
    2ee2:	55 0b       	sbc	r21, r21
    2ee4:	bb 27       	eor	r27, r27
    2ee6:	aa 27       	eor	r26, r26
    2ee8:	62 17       	cp	r22, r18
    2eea:	73 07       	cpc	r23, r19
    2eec:	84 07       	cpc	r24, r20
    2eee:	38 f0       	brcs	.+14     	; 0x2efe <__divsf3_pse+0x26>
    2ef0:	9f 5f       	subi	r25, 0xFF	; 255
    2ef2:	5f 4f       	sbci	r21, 0xFF	; 255
    2ef4:	22 0f       	add	r18, r18
    2ef6:	33 1f       	adc	r19, r19
    2ef8:	44 1f       	adc	r20, r20
    2efa:	aa 1f       	adc	r26, r26
    2efc:	a9 f3       	breq	.-22     	; 0x2ee8 <__divsf3_pse+0x10>
    2efe:	35 d0       	rcall	.+106    	; 0x2f6a <__divsf3_pse+0x92>
    2f00:	0e 2e       	mov	r0, r30
    2f02:	3a f0       	brmi	.+14     	; 0x2f12 <__divsf3_pse+0x3a>
    2f04:	e0 e8       	ldi	r30, 0x80	; 128
    2f06:	32 d0       	rcall	.+100    	; 0x2f6c <__divsf3_pse+0x94>
    2f08:	91 50       	subi	r25, 0x01	; 1
    2f0a:	50 40       	sbci	r21, 0x00	; 0
    2f0c:	e6 95       	lsr	r30
    2f0e:	00 1c       	adc	r0, r0
    2f10:	ca f7       	brpl	.-14     	; 0x2f04 <__divsf3_pse+0x2c>
    2f12:	2b d0       	rcall	.+86     	; 0x2f6a <__divsf3_pse+0x92>
    2f14:	fe 2f       	mov	r31, r30
    2f16:	29 d0       	rcall	.+82     	; 0x2f6a <__divsf3_pse+0x92>
    2f18:	66 0f       	add	r22, r22
    2f1a:	77 1f       	adc	r23, r23
    2f1c:	88 1f       	adc	r24, r24
    2f1e:	bb 1f       	adc	r27, r27
    2f20:	26 17       	cp	r18, r22
    2f22:	37 07       	cpc	r19, r23
    2f24:	48 07       	cpc	r20, r24
    2f26:	ab 07       	cpc	r26, r27
    2f28:	b0 e8       	ldi	r27, 0x80	; 128
    2f2a:	09 f0       	breq	.+2      	; 0x2f2e <__divsf3_pse+0x56>
    2f2c:	bb 0b       	sbc	r27, r27
    2f2e:	80 2d       	mov	r24, r0
    2f30:	bf 01       	movw	r22, r30
    2f32:	ff 27       	eor	r31, r31
    2f34:	93 58       	subi	r25, 0x83	; 131
    2f36:	5f 4f       	sbci	r21, 0xFF	; 255
    2f38:	3a f0       	brmi	.+14     	; 0x2f48 <__divsf3_pse+0x70>
    2f3a:	9e 3f       	cpi	r25, 0xFE	; 254
    2f3c:	51 05       	cpc	r21, r1
    2f3e:	78 f0       	brcs	.+30     	; 0x2f5e <__divsf3_pse+0x86>
    2f40:	0c 94 cf 18 	jmp	0x319e	; 0x319e <__fp_inf>
    2f44:	0c 94 d5 19 	jmp	0x33aa	; 0x33aa <__fp_szero>
    2f48:	5f 3f       	cpi	r21, 0xFF	; 255
    2f4a:	e4 f3       	brlt	.-8      	; 0x2f44 <__divsf3_pse+0x6c>
    2f4c:	98 3e       	cpi	r25, 0xE8	; 232
    2f4e:	d4 f3       	brlt	.-12     	; 0x2f44 <__divsf3_pse+0x6c>
    2f50:	86 95       	lsr	r24
    2f52:	77 95       	ror	r23
    2f54:	67 95       	ror	r22
    2f56:	b7 95       	ror	r27
    2f58:	f7 95       	ror	r31
    2f5a:	9f 5f       	subi	r25, 0xFF	; 255
    2f5c:	c9 f7       	brne	.-14     	; 0x2f50 <__divsf3_pse+0x78>
    2f5e:	88 0f       	add	r24, r24
    2f60:	91 1d       	adc	r25, r1
    2f62:	96 95       	lsr	r25
    2f64:	87 95       	ror	r24
    2f66:	97 f9       	bld	r25, 7
    2f68:	08 95       	ret
    2f6a:	e1 e0       	ldi	r30, 0x01	; 1
    2f6c:	66 0f       	add	r22, r22
    2f6e:	77 1f       	adc	r23, r23
    2f70:	88 1f       	adc	r24, r24
    2f72:	bb 1f       	adc	r27, r27
    2f74:	62 17       	cp	r22, r18
    2f76:	73 07       	cpc	r23, r19
    2f78:	84 07       	cpc	r24, r20
    2f7a:	ba 07       	cpc	r27, r26
    2f7c:	20 f0       	brcs	.+8      	; 0x2f86 <__divsf3_pse+0xae>
    2f7e:	62 1b       	sub	r22, r18
    2f80:	73 0b       	sbc	r23, r19
    2f82:	84 0b       	sbc	r24, r20
    2f84:	ba 0b       	sbc	r27, r26
    2f86:	ee 1f       	adc	r30, r30
    2f88:	88 f7       	brcc	.-30     	; 0x2f6c <__divsf3_pse+0x94>
    2f8a:	e0 95       	com	r30
    2f8c:	08 95       	ret
    2f8e:	29 f4       	brne	.+10     	; 0x2f9a <__divsf3_pse+0xc2>
    2f90:	16 f0       	brts	.+4      	; 0x2f96 <__divsf3_pse+0xbe>
    2f92:	0c 94 cf 18 	jmp	0x319e	; 0x319e <__fp_inf>
    2f96:	0c 94 d4 19 	jmp	0x33a8	; 0x33a8 <__fp_zero>
    2f9a:	0c 94 fe 18 	jmp	0x31fc	; 0x31fc <__fp_nan>

00002f9e <exp>:
    2f9e:	0e 94 a2 19 	call	0x3344	; 0x3344 <__fp_splitA>
    2fa2:	a8 f3       	brcs	.-22     	; 0x2f8e <__divsf3_pse+0xb6>
    2fa4:	96 38       	cpi	r25, 0x86	; 134
    2fa6:	a0 f7       	brcc	.-24     	; 0x2f90 <__divsf3_pse+0xb8>
    2fa8:	07 f8       	bld	r0, 7
    2faa:	0f 92       	push	r0
    2fac:	e8 94       	clt
    2fae:	2b e3       	ldi	r18, 0x3B	; 59
    2fb0:	3a ea       	ldi	r19, 0xAA	; 170
    2fb2:	48 eb       	ldi	r20, 0xB8	; 184
    2fb4:	5f e7       	ldi	r21, 0x7F	; 127
    2fb6:	0e 94 c4 1a 	call	0x3588	; 0x3588 <__mulsf3_pse>
    2fba:	0f 92       	push	r0
    2fbc:	0f 92       	push	r0
    2fbe:	0f 92       	push	r0
    2fc0:	4d b7       	in	r20, 0x3d	; 61
    2fc2:	5e b7       	in	r21, 0x3e	; 62
    2fc4:	0f 92       	push	r0
    2fc6:	0e 94 7a 1a 	call	0x34f4	; 0x34f4 <modf>
    2fca:	e5 e9       	ldi	r30, 0x95	; 149
    2fcc:	f0 e0       	ldi	r31, 0x00	; 0
    2fce:	0e 94 01 19 	call	0x3202	; 0x3202 <__fp_powser>
    2fd2:	4f 91       	pop	r20
    2fd4:	5f 91       	pop	r21
    2fd6:	ef 91       	pop	r30
    2fd8:	ff 91       	pop	r31
    2fda:	e5 95       	asr	r30
    2fdc:	ee 1f       	adc	r30, r30
    2fde:	ff 1f       	adc	r31, r31
    2fe0:	49 f0       	breq	.+18     	; 0x2ff4 <exp+0x56>
    2fe2:	fe 57       	subi	r31, 0x7E	; 126
    2fe4:	e0 68       	ori	r30, 0x80	; 128
    2fe6:	44 27       	eor	r20, r20
    2fe8:	ee 0f       	add	r30, r30
    2fea:	44 1f       	adc	r20, r20
    2fec:	fa 95       	dec	r31
    2fee:	e1 f7       	brne	.-8      	; 0x2fe8 <exp+0x4a>
    2ff0:	41 95       	neg	r20
    2ff2:	55 0b       	sbc	r21, r21
    2ff4:	0e 94 ec 19 	call	0x33d8	; 0x33d8 <ldexp>
    2ff8:	0f 90       	pop	r0
    2ffa:	07 fe       	sbrs	r0, 7
    2ffc:	0c 94 e0 19 	jmp	0x33c0	; 0x33c0 <inverse>
    3000:	08 95       	ret

00003002 <__fixsfsi>:
    3002:	0e 94 08 18 	call	0x3010	; 0x3010 <__fixunssfsi>
    3006:	68 94       	set
    3008:	b1 11       	cpse	r27, r1
    300a:	0c 94 d5 19 	jmp	0x33aa	; 0x33aa <__fp_szero>
    300e:	08 95       	ret

00003010 <__fixunssfsi>:
    3010:	0e 94 a2 19 	call	0x3344	; 0x3344 <__fp_splitA>
    3014:	88 f0       	brcs	.+34     	; 0x3038 <__fixunssfsi+0x28>
    3016:	9f 57       	subi	r25, 0x7F	; 127
    3018:	98 f0       	brcs	.+38     	; 0x3040 <__fixunssfsi+0x30>
    301a:	b9 2f       	mov	r27, r25
    301c:	99 27       	eor	r25, r25
    301e:	b7 51       	subi	r27, 0x17	; 23
    3020:	b0 f0       	brcs	.+44     	; 0x304e <__fixunssfsi+0x3e>
    3022:	e1 f0       	breq	.+56     	; 0x305c <__fixunssfsi+0x4c>
    3024:	66 0f       	add	r22, r22
    3026:	77 1f       	adc	r23, r23
    3028:	88 1f       	adc	r24, r24
    302a:	99 1f       	adc	r25, r25
    302c:	1a f0       	brmi	.+6      	; 0x3034 <__fixunssfsi+0x24>
    302e:	ba 95       	dec	r27
    3030:	c9 f7       	brne	.-14     	; 0x3024 <__fixunssfsi+0x14>
    3032:	14 c0       	rjmp	.+40     	; 0x305c <__fixunssfsi+0x4c>
    3034:	b1 30       	cpi	r27, 0x01	; 1
    3036:	91 f0       	breq	.+36     	; 0x305c <__fixunssfsi+0x4c>
    3038:	0e 94 d4 19 	call	0x33a8	; 0x33a8 <__fp_zero>
    303c:	b1 e0       	ldi	r27, 0x01	; 1
    303e:	08 95       	ret
    3040:	0c 94 d4 19 	jmp	0x33a8	; 0x33a8 <__fp_zero>
    3044:	67 2f       	mov	r22, r23
    3046:	78 2f       	mov	r23, r24
    3048:	88 27       	eor	r24, r24
    304a:	b8 5f       	subi	r27, 0xF8	; 248
    304c:	39 f0       	breq	.+14     	; 0x305c <__fixunssfsi+0x4c>
    304e:	b9 3f       	cpi	r27, 0xF9	; 249
    3050:	cc f3       	brlt	.-14     	; 0x3044 <__fixunssfsi+0x34>
    3052:	86 95       	lsr	r24
    3054:	77 95       	ror	r23
    3056:	67 95       	ror	r22
    3058:	b3 95       	inc	r27
    305a:	d9 f7       	brne	.-10     	; 0x3052 <__fixunssfsi+0x42>
    305c:	3e f4       	brtc	.+14     	; 0x306c <__fixunssfsi+0x5c>
    305e:	90 95       	com	r25
    3060:	80 95       	com	r24
    3062:	70 95       	com	r23
    3064:	61 95       	neg	r22
    3066:	7f 4f       	sbci	r23, 0xFF	; 255
    3068:	8f 4f       	sbci	r24, 0xFF	; 255
    306a:	9f 4f       	sbci	r25, 0xFF	; 255
    306c:	08 95       	ret

0000306e <__floatunsisf>:
    306e:	e8 94       	clt
    3070:	09 c0       	rjmp	.+18     	; 0x3084 <__floatsisf+0x12>

00003072 <__floatsisf>:
    3072:	97 fb       	bst	r25, 7
    3074:	3e f4       	brtc	.+14     	; 0x3084 <__floatsisf+0x12>
    3076:	90 95       	com	r25
    3078:	80 95       	com	r24
    307a:	70 95       	com	r23
    307c:	61 95       	neg	r22
    307e:	7f 4f       	sbci	r23, 0xFF	; 255
    3080:	8f 4f       	sbci	r24, 0xFF	; 255
    3082:	9f 4f       	sbci	r25, 0xFF	; 255
    3084:	99 23       	and	r25, r25
    3086:	a9 f0       	breq	.+42     	; 0x30b2 <__floatsisf+0x40>
    3088:	f9 2f       	mov	r31, r25
    308a:	96 e9       	ldi	r25, 0x96	; 150
    308c:	bb 27       	eor	r27, r27
    308e:	93 95       	inc	r25
    3090:	f6 95       	lsr	r31
    3092:	87 95       	ror	r24
    3094:	77 95       	ror	r23
    3096:	67 95       	ror	r22
    3098:	b7 95       	ror	r27
    309a:	f1 11       	cpse	r31, r1
    309c:	f8 cf       	rjmp	.-16     	; 0x308e <__floatsisf+0x1c>
    309e:	fa f4       	brpl	.+62     	; 0x30de <__floatsisf+0x6c>
    30a0:	bb 0f       	add	r27, r27
    30a2:	11 f4       	brne	.+4      	; 0x30a8 <__floatsisf+0x36>
    30a4:	60 ff       	sbrs	r22, 0
    30a6:	1b c0       	rjmp	.+54     	; 0x30de <__floatsisf+0x6c>
    30a8:	6f 5f       	subi	r22, 0xFF	; 255
    30aa:	7f 4f       	sbci	r23, 0xFF	; 255
    30ac:	8f 4f       	sbci	r24, 0xFF	; 255
    30ae:	9f 4f       	sbci	r25, 0xFF	; 255
    30b0:	16 c0       	rjmp	.+44     	; 0x30de <__floatsisf+0x6c>
    30b2:	88 23       	and	r24, r24
    30b4:	11 f0       	breq	.+4      	; 0x30ba <__floatsisf+0x48>
    30b6:	96 e9       	ldi	r25, 0x96	; 150
    30b8:	11 c0       	rjmp	.+34     	; 0x30dc <__floatsisf+0x6a>
    30ba:	77 23       	and	r23, r23
    30bc:	21 f0       	breq	.+8      	; 0x30c6 <__floatsisf+0x54>
    30be:	9e e8       	ldi	r25, 0x8E	; 142
    30c0:	87 2f       	mov	r24, r23
    30c2:	76 2f       	mov	r23, r22
    30c4:	05 c0       	rjmp	.+10     	; 0x30d0 <__floatsisf+0x5e>
    30c6:	66 23       	and	r22, r22
    30c8:	71 f0       	breq	.+28     	; 0x30e6 <__floatsisf+0x74>
    30ca:	96 e8       	ldi	r25, 0x86	; 134
    30cc:	86 2f       	mov	r24, r22
    30ce:	70 e0       	ldi	r23, 0x00	; 0
    30d0:	60 e0       	ldi	r22, 0x00	; 0
    30d2:	2a f0       	brmi	.+10     	; 0x30de <__floatsisf+0x6c>
    30d4:	9a 95       	dec	r25
    30d6:	66 0f       	add	r22, r22
    30d8:	77 1f       	adc	r23, r23
    30da:	88 1f       	adc	r24, r24
    30dc:	da f7       	brpl	.-10     	; 0x30d4 <__floatsisf+0x62>
    30de:	88 0f       	add	r24, r24
    30e0:	96 95       	lsr	r25
    30e2:	87 95       	ror	r24
    30e4:	97 f9       	bld	r25, 7
    30e6:	08 95       	ret

000030e8 <floor>:
    30e8:	0e 94 bc 19 	call	0x3378	; 0x3378 <__fp_trunc>
    30ec:	90 f0       	brcs	.+36     	; 0x3112 <floor+0x2a>
    30ee:	9f 37       	cpi	r25, 0x7F	; 127
    30f0:	48 f4       	brcc	.+18     	; 0x3104 <floor+0x1c>
    30f2:	91 11       	cpse	r25, r1
    30f4:	16 f0       	brts	.+4      	; 0x30fa <floor+0x12>
    30f6:	0c 94 d5 19 	jmp	0x33aa	; 0x33aa <__fp_szero>
    30fa:	60 e0       	ldi	r22, 0x00	; 0
    30fc:	70 e0       	ldi	r23, 0x00	; 0
    30fe:	80 e8       	ldi	r24, 0x80	; 128
    3100:	9f eb       	ldi	r25, 0xBF	; 191
    3102:	08 95       	ret
    3104:	26 f4       	brtc	.+8      	; 0x310e <floor+0x26>
    3106:	1b 16       	cp	r1, r27
    3108:	61 1d       	adc	r22, r1
    310a:	71 1d       	adc	r23, r1
    310c:	81 1d       	adc	r24, r1
    310e:	0c 94 d5 18 	jmp	0x31aa	; 0x31aa <__fp_mintl>
    3112:	0c 94 f0 18 	jmp	0x31e0	; 0x31e0 <__fp_mpack>

00003116 <__fp_arccos>:
    3116:	df 93       	push	r29
    3118:	cf 93       	push	r28
    311a:	1f 93       	push	r17
    311c:	0f 93       	push	r16
    311e:	8b 01       	movw	r16, r22
    3120:	ec 01       	movw	r28, r24
    3122:	ed eb       	ldi	r30, 0xBD	; 189
    3124:	f0 e0       	ldi	r31, 0x00	; 0
    3126:	0e 94 01 19 	call	0x3202	; 0x3202 <__fp_powser>
    312a:	0e 94 75 19 	call	0x32ea	; 0x32ea <__fp_round>
    312e:	98 01       	movw	r18, r16
    3130:	ae 01       	movw	r20, r28
    3132:	8b 01       	movw	r16, r22
    3134:	ec 01       	movw	r28, r24
    3136:	60 e0       	ldi	r22, 0x00	; 0
    3138:	70 e0       	ldi	r23, 0x00	; 0
    313a:	80 e8       	ldi	r24, 0x80	; 128
    313c:	9f e3       	ldi	r25, 0x3F	; 63
    313e:	0e 94 7d 16 	call	0x2cfa	; 0x2cfa <__subsf3>
    3142:	0e 94 c3 1b 	call	0x3786	; 0x3786 <sqrt>
    3146:	98 01       	movw	r18, r16
    3148:	ae 01       	movw	r20, r28
    314a:	0f 91       	pop	r16
    314c:	1f 91       	pop	r17
    314e:	cf 91       	pop	r28
    3150:	df 91       	pop	r29
    3152:	0c 94 c1 1a 	jmp	0x3582	; 0x3582 <__mulsf3x>

00003156 <__fp_cmp>:
    3156:	99 0f       	add	r25, r25
    3158:	00 08       	sbc	r0, r0
    315a:	55 0f       	add	r21, r21
    315c:	aa 0b       	sbc	r26, r26
    315e:	e0 e8       	ldi	r30, 0x80	; 128
    3160:	fe ef       	ldi	r31, 0xFE	; 254
    3162:	16 16       	cp	r1, r22
    3164:	17 06       	cpc	r1, r23
    3166:	e8 07       	cpc	r30, r24
    3168:	f9 07       	cpc	r31, r25
    316a:	c0 f0       	brcs	.+48     	; 0x319c <__fp_cmp+0x46>
    316c:	12 16       	cp	r1, r18
    316e:	13 06       	cpc	r1, r19
    3170:	e4 07       	cpc	r30, r20
    3172:	f5 07       	cpc	r31, r21
    3174:	98 f0       	brcs	.+38     	; 0x319c <__fp_cmp+0x46>
    3176:	62 1b       	sub	r22, r18
    3178:	73 0b       	sbc	r23, r19
    317a:	84 0b       	sbc	r24, r20
    317c:	95 0b       	sbc	r25, r21
    317e:	39 f4       	brne	.+14     	; 0x318e <__fp_cmp+0x38>
    3180:	0a 26       	eor	r0, r26
    3182:	61 f0       	breq	.+24     	; 0x319c <__fp_cmp+0x46>
    3184:	23 2b       	or	r18, r19
    3186:	24 2b       	or	r18, r20
    3188:	25 2b       	or	r18, r21
    318a:	21 f4       	brne	.+8      	; 0x3194 <__fp_cmp+0x3e>
    318c:	08 95       	ret
    318e:	0a 26       	eor	r0, r26
    3190:	09 f4       	brne	.+2      	; 0x3194 <__fp_cmp+0x3e>
    3192:	a1 40       	sbci	r26, 0x01	; 1
    3194:	a6 95       	lsr	r26
    3196:	8f ef       	ldi	r24, 0xFF	; 255
    3198:	81 1d       	adc	r24, r1
    319a:	81 1d       	adc	r24, r1
    319c:	08 95       	ret

0000319e <__fp_inf>:
    319e:	97 f9       	bld	r25, 7
    31a0:	9f 67       	ori	r25, 0x7F	; 127
    31a2:	80 e8       	ldi	r24, 0x80	; 128
    31a4:	70 e0       	ldi	r23, 0x00	; 0
    31a6:	60 e0       	ldi	r22, 0x00	; 0
    31a8:	08 95       	ret

000031aa <__fp_mintl>:
    31aa:	88 23       	and	r24, r24
    31ac:	71 f4       	brne	.+28     	; 0x31ca <__fp_mintl+0x20>
    31ae:	77 23       	and	r23, r23
    31b0:	21 f0       	breq	.+8      	; 0x31ba <__fp_mintl+0x10>
    31b2:	98 50       	subi	r25, 0x08	; 8
    31b4:	87 2b       	or	r24, r23
    31b6:	76 2f       	mov	r23, r22
    31b8:	07 c0       	rjmp	.+14     	; 0x31c8 <__fp_mintl+0x1e>
    31ba:	66 23       	and	r22, r22
    31bc:	11 f4       	brne	.+4      	; 0x31c2 <__fp_mintl+0x18>
    31be:	99 27       	eor	r25, r25
    31c0:	0d c0       	rjmp	.+26     	; 0x31dc <__fp_mintl+0x32>
    31c2:	90 51       	subi	r25, 0x10	; 16
    31c4:	86 2b       	or	r24, r22
    31c6:	70 e0       	ldi	r23, 0x00	; 0
    31c8:	60 e0       	ldi	r22, 0x00	; 0
    31ca:	2a f0       	brmi	.+10     	; 0x31d6 <__fp_mintl+0x2c>
    31cc:	9a 95       	dec	r25
    31ce:	66 0f       	add	r22, r22
    31d0:	77 1f       	adc	r23, r23
    31d2:	88 1f       	adc	r24, r24
    31d4:	da f7       	brpl	.-10     	; 0x31cc <__fp_mintl+0x22>
    31d6:	88 0f       	add	r24, r24
    31d8:	96 95       	lsr	r25
    31da:	87 95       	ror	r24
    31dc:	97 f9       	bld	r25, 7
    31de:	08 95       	ret

000031e0 <__fp_mpack>:
    31e0:	9f 3f       	cpi	r25, 0xFF	; 255
    31e2:	31 f0       	breq	.+12     	; 0x31f0 <__fp_mpack_finite+0xc>

000031e4 <__fp_mpack_finite>:
    31e4:	91 50       	subi	r25, 0x01	; 1
    31e6:	20 f4       	brcc	.+8      	; 0x31f0 <__fp_mpack_finite+0xc>
    31e8:	87 95       	ror	r24
    31ea:	77 95       	ror	r23
    31ec:	67 95       	ror	r22
    31ee:	b7 95       	ror	r27
    31f0:	88 0f       	add	r24, r24
    31f2:	91 1d       	adc	r25, r1
    31f4:	96 95       	lsr	r25
    31f6:	87 95       	ror	r24
    31f8:	97 f9       	bld	r25, 7
    31fa:	08 95       	ret

000031fc <__fp_nan>:
    31fc:	9f ef       	ldi	r25, 0xFF	; 255
    31fe:	80 ec       	ldi	r24, 0xC0	; 192
    3200:	08 95       	ret

00003202 <__fp_powser>:
    3202:	df 93       	push	r29
    3204:	cf 93       	push	r28
    3206:	1f 93       	push	r17
    3208:	0f 93       	push	r16
    320a:	ff 92       	push	r15
    320c:	ef 92       	push	r14
    320e:	df 92       	push	r13
    3210:	7b 01       	movw	r14, r22
    3212:	8c 01       	movw	r16, r24
    3214:	68 94       	set
    3216:	06 c0       	rjmp	.+12     	; 0x3224 <__fp_powser+0x22>
    3218:	da 2e       	mov	r13, r26
    321a:	ef 01       	movw	r28, r30
    321c:	0e 94 c1 1a 	call	0x3582	; 0x3582 <__mulsf3x>
    3220:	fe 01       	movw	r30, r28
    3222:	e8 94       	clt
    3224:	a5 91       	lpm	r26, Z+
    3226:	25 91       	lpm	r18, Z+
    3228:	35 91       	lpm	r19, Z+
    322a:	45 91       	lpm	r20, Z+
    322c:	55 91       	lpm	r21, Z+
    322e:	a6 f3       	brts	.-24     	; 0x3218 <__fp_powser+0x16>
    3230:	ef 01       	movw	r28, r30
    3232:	0e 94 95 16 	call	0x2d2a	; 0x2d2a <__addsf3x>
    3236:	fe 01       	movw	r30, r28
    3238:	97 01       	movw	r18, r14
    323a:	a8 01       	movw	r20, r16
    323c:	da 94       	dec	r13
    323e:	69 f7       	brne	.-38     	; 0x321a <__fp_powser+0x18>
    3240:	df 90       	pop	r13
    3242:	ef 90       	pop	r14
    3244:	ff 90       	pop	r15
    3246:	0f 91       	pop	r16
    3248:	1f 91       	pop	r17
    324a:	cf 91       	pop	r28
    324c:	df 91       	pop	r29
    324e:	08 95       	ret

00003250 <__fp_powsodd>:
    3250:	9f 93       	push	r25
    3252:	8f 93       	push	r24
    3254:	7f 93       	push	r23
    3256:	6f 93       	push	r22
    3258:	ff 93       	push	r31
    325a:	ef 93       	push	r30
    325c:	9b 01       	movw	r18, r22
    325e:	ac 01       	movw	r20, r24
    3260:	0e 94 ae 1a 	call	0x355c	; 0x355c <__mulsf3>
    3264:	ef 91       	pop	r30
    3266:	ff 91       	pop	r31
    3268:	0e 94 01 19 	call	0x3202	; 0x3202 <__fp_powser>
    326c:	2f 91       	pop	r18
    326e:	3f 91       	pop	r19
    3270:	4f 91       	pop	r20
    3272:	5f 91       	pop	r21
    3274:	0c 94 ae 1a 	jmp	0x355c	; 0x355c <__mulsf3>

00003278 <__fp_pscA>:
    3278:	00 24       	eor	r0, r0
    327a:	0a 94       	dec	r0
    327c:	16 16       	cp	r1, r22
    327e:	17 06       	cpc	r1, r23
    3280:	18 06       	cpc	r1, r24
    3282:	09 06       	cpc	r0, r25
    3284:	08 95       	ret

00003286 <__fp_pscB>:
    3286:	00 24       	eor	r0, r0
    3288:	0a 94       	dec	r0
    328a:	12 16       	cp	r1, r18
    328c:	13 06       	cpc	r1, r19
    328e:	14 06       	cpc	r1, r20
    3290:	05 06       	cpc	r0, r21
    3292:	08 95       	ret
    3294:	0c 94 fe 18 	jmp	0x31fc	; 0x31fc <__fp_nan>

00003298 <__fp_rempio2>:
    3298:	0e 94 a2 19 	call	0x3344	; 0x3344 <__fp_splitA>
    329c:	d8 f3       	brcs	.-10     	; 0x3294 <__fp_pscB+0xe>
    329e:	e8 94       	clt
    32a0:	e0 e0       	ldi	r30, 0x00	; 0
    32a2:	bb 27       	eor	r27, r27
    32a4:	9f 57       	subi	r25, 0x7F	; 127
    32a6:	f0 f0       	brcs	.+60     	; 0x32e4 <__fp_rempio2+0x4c>
    32a8:	2a ed       	ldi	r18, 0xDA	; 218
    32aa:	3f e0       	ldi	r19, 0x0F	; 15
    32ac:	49 ec       	ldi	r20, 0xC9	; 201
    32ae:	06 c0       	rjmp	.+12     	; 0x32bc <__fp_rempio2+0x24>
    32b0:	ee 0f       	add	r30, r30
    32b2:	bb 0f       	add	r27, r27
    32b4:	66 1f       	adc	r22, r22
    32b6:	77 1f       	adc	r23, r23
    32b8:	88 1f       	adc	r24, r24
    32ba:	28 f0       	brcs	.+10     	; 0x32c6 <__fp_rempio2+0x2e>
    32bc:	b2 3a       	cpi	r27, 0xA2	; 162
    32be:	62 07       	cpc	r22, r18
    32c0:	73 07       	cpc	r23, r19
    32c2:	84 07       	cpc	r24, r20
    32c4:	28 f0       	brcs	.+10     	; 0x32d0 <__fp_rempio2+0x38>
    32c6:	b2 5a       	subi	r27, 0xA2	; 162
    32c8:	62 0b       	sbc	r22, r18
    32ca:	73 0b       	sbc	r23, r19
    32cc:	84 0b       	sbc	r24, r20
    32ce:	e3 95       	inc	r30
    32d0:	9a 95       	dec	r25
    32d2:	72 f7       	brpl	.-36     	; 0x32b0 <__fp_rempio2+0x18>
    32d4:	80 38       	cpi	r24, 0x80	; 128
    32d6:	30 f4       	brcc	.+12     	; 0x32e4 <__fp_rempio2+0x4c>
    32d8:	9a 95       	dec	r25
    32da:	bb 0f       	add	r27, r27
    32dc:	66 1f       	adc	r22, r22
    32de:	77 1f       	adc	r23, r23
    32e0:	88 1f       	adc	r24, r24
    32e2:	d2 f7       	brpl	.-12     	; 0x32d8 <__fp_rempio2+0x40>
    32e4:	90 48       	sbci	r25, 0x80	; 128
    32e6:	0c 94 f2 18 	jmp	0x31e4	; 0x31e4 <__fp_mpack_finite>

000032ea <__fp_round>:
    32ea:	09 2e       	mov	r0, r25
    32ec:	03 94       	inc	r0
    32ee:	00 0c       	add	r0, r0
    32f0:	11 f4       	brne	.+4      	; 0x32f6 <__fp_round+0xc>
    32f2:	88 23       	and	r24, r24
    32f4:	52 f0       	brmi	.+20     	; 0x330a <__fp_round+0x20>
    32f6:	bb 0f       	add	r27, r27
    32f8:	40 f4       	brcc	.+16     	; 0x330a <__fp_round+0x20>
    32fa:	bf 2b       	or	r27, r31
    32fc:	11 f4       	brne	.+4      	; 0x3302 <__fp_round+0x18>
    32fe:	60 ff       	sbrs	r22, 0
    3300:	04 c0       	rjmp	.+8      	; 0x330a <__fp_round+0x20>
    3302:	6f 5f       	subi	r22, 0xFF	; 255
    3304:	7f 4f       	sbci	r23, 0xFF	; 255
    3306:	8f 4f       	sbci	r24, 0xFF	; 255
    3308:	9f 4f       	sbci	r25, 0xFF	; 255
    330a:	08 95       	ret

0000330c <__fp_sinus>:
    330c:	ef 93       	push	r30
    330e:	e0 ff       	sbrs	r30, 0
    3310:	07 c0       	rjmp	.+14     	; 0x3320 <__fp_sinus+0x14>
    3312:	a2 ea       	ldi	r26, 0xA2	; 162
    3314:	2a ed       	ldi	r18, 0xDA	; 218
    3316:	3f e0       	ldi	r19, 0x0F	; 15
    3318:	49 ec       	ldi	r20, 0xC9	; 201
    331a:	5f eb       	ldi	r21, 0xBF	; 191
    331c:	0e 94 95 16 	call	0x2d2a	; 0x2d2a <__addsf3x>
    3320:	0e 94 75 19 	call	0x32ea	; 0x32ea <__fp_round>
    3324:	0f 90       	pop	r0
    3326:	03 94       	inc	r0
    3328:	01 fc       	sbrc	r0, 1
    332a:	90 58       	subi	r25, 0x80	; 128
    332c:	e5 ee       	ldi	r30, 0xE5	; 229
    332e:	f0 e0       	ldi	r31, 0x00	; 0
    3330:	0c 94 28 19 	jmp	0x3250	; 0x3250 <__fp_powsodd>

00003334 <__fp_split3>:
    3334:	57 fd       	sbrc	r21, 7
    3336:	90 58       	subi	r25, 0x80	; 128
    3338:	44 0f       	add	r20, r20
    333a:	55 1f       	adc	r21, r21
    333c:	59 f0       	breq	.+22     	; 0x3354 <__fp_splitA+0x10>
    333e:	5f 3f       	cpi	r21, 0xFF	; 255
    3340:	71 f0       	breq	.+28     	; 0x335e <__fp_splitA+0x1a>
    3342:	47 95       	ror	r20

00003344 <__fp_splitA>:
    3344:	88 0f       	add	r24, r24
    3346:	97 fb       	bst	r25, 7
    3348:	99 1f       	adc	r25, r25
    334a:	61 f0       	breq	.+24     	; 0x3364 <__fp_splitA+0x20>
    334c:	9f 3f       	cpi	r25, 0xFF	; 255
    334e:	79 f0       	breq	.+30     	; 0x336e <__fp_splitA+0x2a>
    3350:	87 95       	ror	r24
    3352:	08 95       	ret
    3354:	12 16       	cp	r1, r18
    3356:	13 06       	cpc	r1, r19
    3358:	14 06       	cpc	r1, r20
    335a:	55 1f       	adc	r21, r21
    335c:	f2 cf       	rjmp	.-28     	; 0x3342 <__fp_split3+0xe>
    335e:	46 95       	lsr	r20
    3360:	f1 df       	rcall	.-30     	; 0x3344 <__fp_splitA>
    3362:	08 c0       	rjmp	.+16     	; 0x3374 <__fp_splitA+0x30>
    3364:	16 16       	cp	r1, r22
    3366:	17 06       	cpc	r1, r23
    3368:	18 06       	cpc	r1, r24
    336a:	99 1f       	adc	r25, r25
    336c:	f1 cf       	rjmp	.-30     	; 0x3350 <__fp_splitA+0xc>
    336e:	86 95       	lsr	r24
    3370:	71 05       	cpc	r23, r1
    3372:	61 05       	cpc	r22, r1
    3374:	08 94       	sec
    3376:	08 95       	ret

00003378 <__fp_trunc>:
    3378:	0e 94 a2 19 	call	0x3344	; 0x3344 <__fp_splitA>
    337c:	a0 f0       	brcs	.+40     	; 0x33a6 <__fp_trunc+0x2e>
    337e:	be e7       	ldi	r27, 0x7E	; 126
    3380:	b9 17       	cp	r27, r25
    3382:	88 f4       	brcc	.+34     	; 0x33a6 <__fp_trunc+0x2e>
    3384:	bb 27       	eor	r27, r27
    3386:	9f 38       	cpi	r25, 0x8F	; 143
    3388:	60 f4       	brcc	.+24     	; 0x33a2 <__fp_trunc+0x2a>
    338a:	16 16       	cp	r1, r22
    338c:	b1 1d       	adc	r27, r1
    338e:	67 2f       	mov	r22, r23
    3390:	78 2f       	mov	r23, r24
    3392:	88 27       	eor	r24, r24
    3394:	98 5f       	subi	r25, 0xF8	; 248
    3396:	f7 cf       	rjmp	.-18     	; 0x3386 <__fp_trunc+0xe>
    3398:	86 95       	lsr	r24
    339a:	77 95       	ror	r23
    339c:	67 95       	ror	r22
    339e:	b1 1d       	adc	r27, r1
    33a0:	93 95       	inc	r25
    33a2:	96 39       	cpi	r25, 0x96	; 150
    33a4:	c8 f3       	brcs	.-14     	; 0x3398 <__fp_trunc+0x20>
    33a6:	08 95       	ret

000033a8 <__fp_zero>:
    33a8:	e8 94       	clt

000033aa <__fp_szero>:
    33aa:	bb 27       	eor	r27, r27
    33ac:	66 27       	eor	r22, r22
    33ae:	77 27       	eor	r23, r23
    33b0:	cb 01       	movw	r24, r22
    33b2:	97 f9       	bld	r25, 7
    33b4:	08 95       	ret

000033b6 <__gesf2>:
    33b6:	0e 94 ab 18 	call	0x3156	; 0x3156 <__fp_cmp>
    33ba:	08 f4       	brcc	.+2      	; 0x33be <__gesf2+0x8>
    33bc:	8f ef       	ldi	r24, 0xFF	; 255
    33be:	08 95       	ret

000033c0 <inverse>:
    33c0:	9b 01       	movw	r18, r22
    33c2:	ac 01       	movw	r20, r24
    33c4:	60 e0       	ldi	r22, 0x00	; 0
    33c6:	70 e0       	ldi	r23, 0x00	; 0
    33c8:	80 e8       	ldi	r24, 0x80	; 128
    33ca:	9f e3       	ldi	r25, 0x3F	; 63
    33cc:	0c 94 55 17 	jmp	0x2eaa	; 0x2eaa <__divsf3>
    33d0:	0c 94 cf 18 	jmp	0x319e	; 0x319e <__fp_inf>
    33d4:	0c 94 f0 18 	jmp	0x31e0	; 0x31e0 <__fp_mpack>

000033d8 <ldexp>:
    33d8:	0e 94 a2 19 	call	0x3344	; 0x3344 <__fp_splitA>
    33dc:	d8 f3       	brcs	.-10     	; 0x33d4 <inverse+0x14>
    33de:	99 23       	and	r25, r25
    33e0:	c9 f3       	breq	.-14     	; 0x33d4 <inverse+0x14>
    33e2:	94 0f       	add	r25, r20
    33e4:	51 1d       	adc	r21, r1
    33e6:	a3 f3       	brvs	.-24     	; 0x33d0 <inverse+0x10>
    33e8:	91 50       	subi	r25, 0x01	; 1
    33ea:	50 40       	sbci	r21, 0x00	; 0
    33ec:	94 f0       	brlt	.+36     	; 0x3412 <ldexp+0x3a>
    33ee:	59 f0       	breq	.+22     	; 0x3406 <ldexp+0x2e>
    33f0:	88 23       	and	r24, r24
    33f2:	32 f0       	brmi	.+12     	; 0x3400 <ldexp+0x28>
    33f4:	66 0f       	add	r22, r22
    33f6:	77 1f       	adc	r23, r23
    33f8:	88 1f       	adc	r24, r24
    33fa:	91 50       	subi	r25, 0x01	; 1
    33fc:	50 40       	sbci	r21, 0x00	; 0
    33fe:	c1 f7       	brne	.-16     	; 0x33f0 <ldexp+0x18>
    3400:	9e 3f       	cpi	r25, 0xFE	; 254
    3402:	51 05       	cpc	r21, r1
    3404:	2c f7       	brge	.-54     	; 0x33d0 <inverse+0x10>
    3406:	88 0f       	add	r24, r24
    3408:	91 1d       	adc	r25, r1
    340a:	96 95       	lsr	r25
    340c:	87 95       	ror	r24
    340e:	97 f9       	bld	r25, 7
    3410:	08 95       	ret
    3412:	5f 3f       	cpi	r21, 0xFF	; 255
    3414:	ac f0       	brlt	.+42     	; 0x3440 <ldexp+0x68>
    3416:	98 3e       	cpi	r25, 0xE8	; 232
    3418:	9c f0       	brlt	.+38     	; 0x3440 <ldexp+0x68>
    341a:	bb 27       	eor	r27, r27
    341c:	86 95       	lsr	r24
    341e:	77 95       	ror	r23
    3420:	67 95       	ror	r22
    3422:	b7 95       	ror	r27
    3424:	08 f4       	brcc	.+2      	; 0x3428 <ldexp+0x50>
    3426:	b1 60       	ori	r27, 0x01	; 1
    3428:	93 95       	inc	r25
    342a:	c1 f7       	brne	.-16     	; 0x341c <ldexp+0x44>
    342c:	bb 0f       	add	r27, r27
    342e:	58 f7       	brcc	.-42     	; 0x3406 <ldexp+0x2e>
    3430:	11 f4       	brne	.+4      	; 0x3436 <ldexp+0x5e>
    3432:	60 ff       	sbrs	r22, 0
    3434:	e8 cf       	rjmp	.-48     	; 0x3406 <ldexp+0x2e>
    3436:	6f 5f       	subi	r22, 0xFF	; 255
    3438:	7f 4f       	sbci	r23, 0xFF	; 255
    343a:	8f 4f       	sbci	r24, 0xFF	; 255
    343c:	9f 4f       	sbci	r25, 0xFF	; 255
    343e:	e3 cf       	rjmp	.-58     	; 0x3406 <ldexp+0x2e>
    3440:	0c 94 d5 19 	jmp	0x33aa	; 0x33aa <__fp_szero>

00003444 <log10>:
    3444:	0e 94 32 1a 	call	0x3464	; 0x3464 <log>
    3448:	29 ed       	ldi	r18, 0xD9	; 217
    344a:	3b e5       	ldi	r19, 0x5B	; 91
    344c:	4e ed       	ldi	r20, 0xDE	; 222
    344e:	5e e3       	ldi	r21, 0x3E	; 62
    3450:	0c 94 ae 1a 	jmp	0x355c	; 0x355c <__mulsf3>
    3454:	16 f0       	brts	.+4      	; 0x345a <log10+0x16>
    3456:	0c 94 f0 18 	jmp	0x31e0	; 0x31e0 <__fp_mpack>
    345a:	0c 94 fe 18 	jmp	0x31fc	; 0x31fc <__fp_nan>
    345e:	68 94       	set
    3460:	0c 94 cf 18 	jmp	0x319e	; 0x319e <__fp_inf>

00003464 <log>:
    3464:	0e 94 a2 19 	call	0x3344	; 0x3344 <__fp_splitA>
    3468:	a8 f3       	brcs	.-22     	; 0x3454 <log10+0x10>
    346a:	99 23       	and	r25, r25
    346c:	c1 f3       	breq	.-16     	; 0x345e <log10+0x1a>
    346e:	ae f3       	brts	.-22     	; 0x345a <log10+0x16>
    3470:	df 93       	push	r29
    3472:	cf 93       	push	r28
    3474:	1f 93       	push	r17
    3476:	0f 93       	push	r16
    3478:	ff 92       	push	r15
    347a:	c9 2f       	mov	r28, r25
    347c:	dd 27       	eor	r29, r29
    347e:	88 23       	and	r24, r24
    3480:	2a f0       	brmi	.+10     	; 0x348c <log+0x28>
    3482:	21 97       	sbiw	r28, 0x01	; 1
    3484:	66 0f       	add	r22, r22
    3486:	77 1f       	adc	r23, r23
    3488:	88 1f       	adc	r24, r24
    348a:	da f7       	brpl	.-10     	; 0x3482 <log+0x1e>
    348c:	20 e0       	ldi	r18, 0x00	; 0
    348e:	30 e0       	ldi	r19, 0x00	; 0
    3490:	40 e8       	ldi	r20, 0x80	; 128
    3492:	5f eb       	ldi	r21, 0xBF	; 191
    3494:	9f e3       	ldi	r25, 0x3F	; 63
    3496:	88 39       	cpi	r24, 0x98	; 152
    3498:	20 f0       	brcs	.+8      	; 0x34a2 <log+0x3e>
    349a:	80 3e       	cpi	r24, 0xE0	; 224
    349c:	38 f0       	brcs	.+14     	; 0x34ac <log+0x48>
    349e:	21 96       	adiw	r28, 0x01	; 1
    34a0:	8f 77       	andi	r24, 0x7F	; 127
    34a2:	0e 94 7e 16 	call	0x2cfc	; 0x2cfc <__addsf3>
    34a6:	e3 e0       	ldi	r30, 0x03	; 3
    34a8:	f1 e0       	ldi	r31, 0x01	; 1
    34aa:	04 c0       	rjmp	.+8      	; 0x34b4 <log+0x50>
    34ac:	0e 94 7e 16 	call	0x2cfc	; 0x2cfc <__addsf3>
    34b0:	e0 e3       	ldi	r30, 0x30	; 48
    34b2:	f1 e0       	ldi	r31, 0x01	; 1
    34b4:	0e 94 01 19 	call	0x3202	; 0x3202 <__fp_powser>
    34b8:	8b 01       	movw	r16, r22
    34ba:	be 01       	movw	r22, r28
    34bc:	ec 01       	movw	r28, r24
    34be:	fb 2e       	mov	r15, r27
    34c0:	6f 57       	subi	r22, 0x7F	; 127
    34c2:	71 09       	sbc	r23, r1
    34c4:	75 95       	asr	r23
    34c6:	77 1f       	adc	r23, r23
    34c8:	88 0b       	sbc	r24, r24
    34ca:	99 0b       	sbc	r25, r25
    34cc:	0e 94 39 18 	call	0x3072	; 0x3072 <__floatsisf>
    34d0:	28 e1       	ldi	r18, 0x18	; 24
    34d2:	32 e7       	ldi	r19, 0x72	; 114
    34d4:	41 e3       	ldi	r20, 0x31	; 49
    34d6:	5f e3       	ldi	r21, 0x3F	; 63
    34d8:	0e 94 c1 1a 	call	0x3582	; 0x3582 <__mulsf3x>
    34dc:	af 2d       	mov	r26, r15
    34de:	98 01       	movw	r18, r16
    34e0:	ae 01       	movw	r20, r28
    34e2:	ff 90       	pop	r15
    34e4:	0f 91       	pop	r16
    34e6:	1f 91       	pop	r17
    34e8:	cf 91       	pop	r28
    34ea:	df 91       	pop	r29
    34ec:	0e 94 95 16 	call	0x2d2a	; 0x2d2a <__addsf3x>
    34f0:	0c 94 75 19 	jmp	0x32ea	; 0x32ea <__fp_round>

000034f4 <modf>:
    34f4:	fa 01       	movw	r30, r20
    34f6:	dc 01       	movw	r26, r24
    34f8:	aa 0f       	add	r26, r26
    34fa:	bb 1f       	adc	r27, r27
    34fc:	9b 01       	movw	r18, r22
    34fe:	ac 01       	movw	r20, r24
    3500:	bf 57       	subi	r27, 0x7F	; 127
    3502:	28 f4       	brcc	.+10     	; 0x350e <modf+0x1a>
    3504:	22 27       	eor	r18, r18
    3506:	33 27       	eor	r19, r19
    3508:	44 27       	eor	r20, r20
    350a:	50 78       	andi	r21, 0x80	; 128
    350c:	20 c0       	rjmp	.+64     	; 0x354e <modf+0x5a>
    350e:	b7 51       	subi	r27, 0x17	; 23
    3510:	90 f4       	brcc	.+36     	; 0x3536 <modf+0x42>
    3512:	ab 2f       	mov	r26, r27
    3514:	00 24       	eor	r0, r0
    3516:	46 95       	lsr	r20
    3518:	37 95       	ror	r19
    351a:	27 95       	ror	r18
    351c:	01 1c       	adc	r0, r1
    351e:	a3 95       	inc	r26
    3520:	d2 f3       	brmi	.-12     	; 0x3516 <modf+0x22>
    3522:	00 20       	and	r0, r0
    3524:	71 f0       	breq	.+28     	; 0x3542 <modf+0x4e>
    3526:	22 0f       	add	r18, r18
    3528:	33 1f       	adc	r19, r19
    352a:	44 1f       	adc	r20, r20
    352c:	b3 95       	inc	r27
    352e:	da f3       	brmi	.-10     	; 0x3526 <modf+0x32>
    3530:	0e d0       	rcall	.+28     	; 0x354e <modf+0x5a>
    3532:	0c 94 7d 16 	jmp	0x2cfa	; 0x2cfa <__subsf3>
    3536:	61 30       	cpi	r22, 0x01	; 1
    3538:	71 05       	cpc	r23, r1
    353a:	a0 e8       	ldi	r26, 0x80	; 128
    353c:	8a 07       	cpc	r24, r26
    353e:	b9 46       	sbci	r27, 0x69	; 105
    3540:	30 f4       	brcc	.+12     	; 0x354e <modf+0x5a>
    3542:	9b 01       	movw	r18, r22
    3544:	ac 01       	movw	r20, r24
    3546:	66 27       	eor	r22, r22
    3548:	77 27       	eor	r23, r23
    354a:	88 27       	eor	r24, r24
    354c:	90 78       	andi	r25, 0x80	; 128
    354e:	30 96       	adiw	r30, 0x00	; 0
    3550:	21 f0       	breq	.+8      	; 0x355a <modf+0x66>
    3552:	20 83       	st	Z, r18
    3554:	31 83       	std	Z+1, r19	; 0x01
    3556:	42 83       	std	Z+2, r20	; 0x02
    3558:	53 83       	std	Z+3, r21	; 0x03
    355a:	08 95       	ret

0000355c <__mulsf3>:
    355c:	0e 94 c1 1a 	call	0x3582	; 0x3582 <__mulsf3x>
    3560:	0c 94 75 19 	jmp	0x32ea	; 0x32ea <__fp_round>
    3564:	0e 94 3c 19 	call	0x3278	; 0x3278 <__fp_pscA>
    3568:	38 f0       	brcs	.+14     	; 0x3578 <__mulsf3+0x1c>
    356a:	0e 94 43 19 	call	0x3286	; 0x3286 <__fp_pscB>
    356e:	20 f0       	brcs	.+8      	; 0x3578 <__mulsf3+0x1c>
    3570:	95 23       	and	r25, r21
    3572:	11 f0       	breq	.+4      	; 0x3578 <__mulsf3+0x1c>
    3574:	0c 94 cf 18 	jmp	0x319e	; 0x319e <__fp_inf>
    3578:	0c 94 fe 18 	jmp	0x31fc	; 0x31fc <__fp_nan>
    357c:	11 24       	eor	r1, r1
    357e:	0c 94 d5 19 	jmp	0x33aa	; 0x33aa <__fp_szero>

00003582 <__mulsf3x>:
    3582:	0e 94 9a 19 	call	0x3334	; 0x3334 <__fp_split3>
    3586:	70 f3       	brcs	.-36     	; 0x3564 <__mulsf3+0x8>

00003588 <__mulsf3_pse>:
    3588:	95 9f       	mul	r25, r21
    358a:	c1 f3       	breq	.-16     	; 0x357c <__mulsf3+0x20>
    358c:	95 0f       	add	r25, r21
    358e:	50 e0       	ldi	r21, 0x00	; 0
    3590:	55 1f       	adc	r21, r21
    3592:	62 9f       	mul	r22, r18
    3594:	f0 01       	movw	r30, r0
    3596:	72 9f       	mul	r23, r18
    3598:	bb 27       	eor	r27, r27
    359a:	f0 0d       	add	r31, r0
    359c:	b1 1d       	adc	r27, r1
    359e:	63 9f       	mul	r22, r19
    35a0:	aa 27       	eor	r26, r26
    35a2:	f0 0d       	add	r31, r0
    35a4:	b1 1d       	adc	r27, r1
    35a6:	aa 1f       	adc	r26, r26
    35a8:	64 9f       	mul	r22, r20
    35aa:	66 27       	eor	r22, r22
    35ac:	b0 0d       	add	r27, r0
    35ae:	a1 1d       	adc	r26, r1
    35b0:	66 1f       	adc	r22, r22
    35b2:	82 9f       	mul	r24, r18
    35b4:	22 27       	eor	r18, r18
    35b6:	b0 0d       	add	r27, r0
    35b8:	a1 1d       	adc	r26, r1
    35ba:	62 1f       	adc	r22, r18
    35bc:	73 9f       	mul	r23, r19
    35be:	b0 0d       	add	r27, r0
    35c0:	a1 1d       	adc	r26, r1
    35c2:	62 1f       	adc	r22, r18
    35c4:	83 9f       	mul	r24, r19
    35c6:	a0 0d       	add	r26, r0
    35c8:	61 1d       	adc	r22, r1
    35ca:	22 1f       	adc	r18, r18
    35cc:	74 9f       	mul	r23, r20
    35ce:	33 27       	eor	r19, r19
    35d0:	a0 0d       	add	r26, r0
    35d2:	61 1d       	adc	r22, r1
    35d4:	23 1f       	adc	r18, r19
    35d6:	84 9f       	mul	r24, r20
    35d8:	60 0d       	add	r22, r0
    35da:	21 1d       	adc	r18, r1
    35dc:	82 2f       	mov	r24, r18
    35de:	76 2f       	mov	r23, r22
    35e0:	6a 2f       	mov	r22, r26
    35e2:	11 24       	eor	r1, r1
    35e4:	9f 57       	subi	r25, 0x7F	; 127
    35e6:	50 40       	sbci	r21, 0x00	; 0
    35e8:	9a f0       	brmi	.+38     	; 0x3610 <__mulsf3_pse+0x88>
    35ea:	f1 f0       	breq	.+60     	; 0x3628 <__mulsf3_pse+0xa0>
    35ec:	88 23       	and	r24, r24
    35ee:	4a f0       	brmi	.+18     	; 0x3602 <__mulsf3_pse+0x7a>
    35f0:	ee 0f       	add	r30, r30
    35f2:	ff 1f       	adc	r31, r31
    35f4:	bb 1f       	adc	r27, r27
    35f6:	66 1f       	adc	r22, r22
    35f8:	77 1f       	adc	r23, r23
    35fa:	88 1f       	adc	r24, r24
    35fc:	91 50       	subi	r25, 0x01	; 1
    35fe:	50 40       	sbci	r21, 0x00	; 0
    3600:	a9 f7       	brne	.-22     	; 0x35ec <__mulsf3_pse+0x64>
    3602:	9e 3f       	cpi	r25, 0xFE	; 254
    3604:	51 05       	cpc	r21, r1
    3606:	80 f0       	brcs	.+32     	; 0x3628 <__mulsf3_pse+0xa0>
    3608:	0c 94 cf 18 	jmp	0x319e	; 0x319e <__fp_inf>
    360c:	0c 94 d5 19 	jmp	0x33aa	; 0x33aa <__fp_szero>
    3610:	5f 3f       	cpi	r21, 0xFF	; 255
    3612:	e4 f3       	brlt	.-8      	; 0x360c <__mulsf3_pse+0x84>
    3614:	98 3e       	cpi	r25, 0xE8	; 232
    3616:	d4 f3       	brlt	.-12     	; 0x360c <__mulsf3_pse+0x84>
    3618:	86 95       	lsr	r24
    361a:	77 95       	ror	r23
    361c:	67 95       	ror	r22
    361e:	b7 95       	ror	r27
    3620:	f7 95       	ror	r31
    3622:	e7 95       	ror	r30
    3624:	9f 5f       	subi	r25, 0xFF	; 255
    3626:	c1 f7       	brne	.-16     	; 0x3618 <__mulsf3_pse+0x90>
    3628:	fe 2b       	or	r31, r30
    362a:	88 0f       	add	r24, r24
    362c:	91 1d       	adc	r25, r1
    362e:	96 95       	lsr	r25
    3630:	87 95       	ror	r24
    3632:	97 f9       	bld	r25, 7
    3634:	08 95       	ret

00003636 <pow>:
    3636:	fa 01       	movw	r30, r20
    3638:	ee 0f       	add	r30, r30
    363a:	ff 1f       	adc	r31, r31
    363c:	30 96       	adiw	r30, 0x00	; 0
    363e:	21 05       	cpc	r18, r1
    3640:	31 05       	cpc	r19, r1
    3642:	a1 f1       	breq	.+104    	; 0x36ac <pow+0x76>
    3644:	61 15       	cp	r22, r1
    3646:	71 05       	cpc	r23, r1
    3648:	61 f4       	brne	.+24     	; 0x3662 <pow+0x2c>
    364a:	80 38       	cpi	r24, 0x80	; 128
    364c:	bf e3       	ldi	r27, 0x3F	; 63
    364e:	9b 07       	cpc	r25, r27
    3650:	49 f1       	breq	.+82     	; 0x36a4 <pow+0x6e>
    3652:	68 94       	set
    3654:	90 38       	cpi	r25, 0x80	; 128
    3656:	81 05       	cpc	r24, r1
    3658:	61 f0       	breq	.+24     	; 0x3672 <pow+0x3c>
    365a:	80 38       	cpi	r24, 0x80	; 128
    365c:	bf ef       	ldi	r27, 0xFF	; 255
    365e:	9b 07       	cpc	r25, r27
    3660:	41 f0       	breq	.+16     	; 0x3672 <pow+0x3c>
    3662:	99 23       	and	r25, r25
    3664:	4a f5       	brpl	.+82     	; 0x36b8 <pow+0x82>
    3666:	ff 3f       	cpi	r31, 0xFF	; 255
    3668:	e1 05       	cpc	r30, r1
    366a:	31 05       	cpc	r19, r1
    366c:	21 05       	cpc	r18, r1
    366e:	19 f1       	breq	.+70     	; 0x36b6 <pow+0x80>
    3670:	e8 94       	clt
    3672:	08 94       	sec
    3674:	e7 95       	ror	r30
    3676:	d9 01       	movw	r26, r18
    3678:	aa 23       	and	r26, r26
    367a:	29 f4       	brne	.+10     	; 0x3686 <pow+0x50>
    367c:	ab 2f       	mov	r26, r27
    367e:	be 2f       	mov	r27, r30
    3680:	f8 5f       	subi	r31, 0xF8	; 248
    3682:	d0 f3       	brcs	.-12     	; 0x3678 <pow+0x42>
    3684:	10 c0       	rjmp	.+32     	; 0x36a6 <pow+0x70>
    3686:	ff 5f       	subi	r31, 0xFF	; 255
    3688:	70 f4       	brcc	.+28     	; 0x36a6 <pow+0x70>
    368a:	a6 95       	lsr	r26
    368c:	e0 f7       	brcc	.-8      	; 0x3686 <pow+0x50>
    368e:	f7 39       	cpi	r31, 0x97	; 151
    3690:	50 f0       	brcs	.+20     	; 0x36a6 <pow+0x70>
    3692:	19 f0       	breq	.+6      	; 0x369a <pow+0x64>
    3694:	ff 3a       	cpi	r31, 0xAF	; 175
    3696:	38 f4       	brcc	.+14     	; 0x36a6 <pow+0x70>
    3698:	9f 77       	andi	r25, 0x7F	; 127
    369a:	9f 93       	push	r25
    369c:	0d d0       	rcall	.+26     	; 0x36b8 <pow+0x82>
    369e:	0f 90       	pop	r0
    36a0:	07 fc       	sbrc	r0, 7
    36a2:	90 58       	subi	r25, 0x80	; 128
    36a4:	08 95       	ret
    36a6:	46 f0       	brts	.+16     	; 0x36b8 <pow+0x82>
    36a8:	0c 94 fe 18 	jmp	0x31fc	; 0x31fc <__fp_nan>
    36ac:	60 e0       	ldi	r22, 0x00	; 0
    36ae:	70 e0       	ldi	r23, 0x00	; 0
    36b0:	80 e8       	ldi	r24, 0x80	; 128
    36b2:	9f e3       	ldi	r25, 0x3F	; 63
    36b4:	08 95       	ret
    36b6:	4f e7       	ldi	r20, 0x7F	; 127
    36b8:	9f 77       	andi	r25, 0x7F	; 127
    36ba:	5f 93       	push	r21
    36bc:	4f 93       	push	r20
    36be:	3f 93       	push	r19
    36c0:	2f 93       	push	r18
    36c2:	0e 94 32 1a 	call	0x3464	; 0x3464 <log>
    36c6:	2f 91       	pop	r18
    36c8:	3f 91       	pop	r19
    36ca:	4f 91       	pop	r20
    36cc:	5f 91       	pop	r21
    36ce:	0e 94 ae 1a 	call	0x355c	; 0x355c <__mulsf3>
    36d2:	0c 94 cf 17 	jmp	0x2f9e	; 0x2f9e <exp>

000036d6 <round>:
    36d6:	0e 94 a2 19 	call	0x3344	; 0x3344 <__fp_splitA>
    36da:	e8 f0       	brcs	.+58     	; 0x3716 <round+0x40>
    36dc:	9e 37       	cpi	r25, 0x7E	; 126
    36de:	e8 f0       	brcs	.+58     	; 0x371a <round+0x44>
    36e0:	96 39       	cpi	r25, 0x96	; 150
    36e2:	b8 f4       	brcc	.+46     	; 0x3712 <round+0x3c>
    36e4:	9e 38       	cpi	r25, 0x8E	; 142
    36e6:	48 f4       	brcc	.+18     	; 0x36fa <round+0x24>
    36e8:	67 2f       	mov	r22, r23
    36ea:	78 2f       	mov	r23, r24
    36ec:	88 27       	eor	r24, r24
    36ee:	98 5f       	subi	r25, 0xF8	; 248
    36f0:	f9 cf       	rjmp	.-14     	; 0x36e4 <round+0xe>
    36f2:	86 95       	lsr	r24
    36f4:	77 95       	ror	r23
    36f6:	67 95       	ror	r22
    36f8:	93 95       	inc	r25
    36fa:	95 39       	cpi	r25, 0x95	; 149
    36fc:	d0 f3       	brcs	.-12     	; 0x36f2 <round+0x1c>
    36fe:	b6 2f       	mov	r27, r22
    3700:	b1 70       	andi	r27, 0x01	; 1
    3702:	6b 0f       	add	r22, r27
    3704:	71 1d       	adc	r23, r1
    3706:	81 1d       	adc	r24, r1
    3708:	20 f4       	brcc	.+8      	; 0x3712 <round+0x3c>
    370a:	87 95       	ror	r24
    370c:	77 95       	ror	r23
    370e:	67 95       	ror	r22
    3710:	93 95       	inc	r25
    3712:	0c 94 d5 18 	jmp	0x31aa	; 0x31aa <__fp_mintl>
    3716:	0c 94 f0 18 	jmp	0x31e0	; 0x31e0 <__fp_mpack>
    371a:	0c 94 d5 19 	jmp	0x33aa	; 0x33aa <__fp_szero>

0000371e <sinh>:
    371e:	9f 93       	push	r25
    3720:	9f 77       	andi	r25, 0x7F	; 127
    3722:	fe e3       	ldi	r31, 0x3E	; 62
    3724:	80 3a       	cpi	r24, 0xA0	; 160
    3726:	9f 07       	cpc	r25, r31
    3728:	28 f4       	brcc	.+10     	; 0x3734 <sinh+0x16>
    372a:	ed e5       	ldi	r30, 0x5D	; 93
    372c:	f1 e0       	ldi	r31, 0x01	; 1
    372e:	0e 94 28 19 	call	0x3250	; 0x3250 <__fp_powsodd>
    3732:	17 c0       	rjmp	.+46     	; 0x3762 <sinh+0x44>
    3734:	90 68       	ori	r25, 0x80	; 128
    3736:	0e 94 cf 17 	call	0x2f9e	; 0x2f9e <exp>
    373a:	4f ef       	ldi	r20, 0xFF	; 255
    373c:	5f ef       	ldi	r21, 0xFF	; 255
    373e:	0e 94 ec 19 	call	0x33d8	; 0x33d8 <ldexp>
    3742:	9f 93       	push	r25
    3744:	8f 93       	push	r24
    3746:	7f 93       	push	r23
    3748:	6f 93       	push	r22
    374a:	42 e0       	ldi	r20, 0x02	; 2
    374c:	50 e0       	ldi	r21, 0x00	; 0
    374e:	0e 94 ec 19 	call	0x33d8	; 0x33d8 <ldexp>
    3752:	0e 94 e0 19 	call	0x33c0	; 0x33c0 <inverse>
    3756:	2f 91       	pop	r18
    3758:	3f 91       	pop	r19
    375a:	4f 91       	pop	r20
    375c:	5f 91       	pop	r21
    375e:	0e 94 7d 16 	call	0x2cfa	; 0x2cfa <__subsf3>
    3762:	0f 90       	pop	r0
    3764:	07 fc       	sbrc	r0, 7
    3766:	90 68       	ori	r25, 0x80	; 128
    3768:	08 95       	ret

0000376a <sin>:
    376a:	9f 93       	push	r25
    376c:	0e 94 4c 19 	call	0x3298	; 0x3298 <__fp_rempio2>
    3770:	0f 90       	pop	r0
    3772:	07 fc       	sbrc	r0, 7
    3774:	ee 5f       	subi	r30, 0xFE	; 254
    3776:	0c 94 86 19 	jmp	0x330c	; 0x330c <__fp_sinus>
    377a:	19 f4       	brne	.+6      	; 0x3782 <sin+0x18>
    377c:	16 f4       	brtc	.+4      	; 0x3782 <sin+0x18>
    377e:	0c 94 fe 18 	jmp	0x31fc	; 0x31fc <__fp_nan>
    3782:	0c 94 f0 18 	jmp	0x31e0	; 0x31e0 <__fp_mpack>

00003786 <sqrt>:
    3786:	0e 94 a2 19 	call	0x3344	; 0x3344 <__fp_splitA>
    378a:	b8 f3       	brcs	.-18     	; 0x377a <sin+0x10>
    378c:	99 23       	and	r25, r25
    378e:	c9 f3       	breq	.-14     	; 0x3782 <sin+0x18>
    3790:	b6 f3       	brts	.-20     	; 0x377e <sin+0x14>
    3792:	9f 57       	subi	r25, 0x7F	; 127
    3794:	55 0b       	sbc	r21, r21
    3796:	87 ff       	sbrs	r24, 7
    3798:	0e 94 60 1c 	call	0x38c0	; 0x38c0 <__fp_norm2>
    379c:	00 24       	eor	r0, r0
    379e:	a0 e6       	ldi	r26, 0x60	; 96
    37a0:	40 ea       	ldi	r20, 0xA0	; 160
    37a2:	90 01       	movw	r18, r0
    37a4:	80 58       	subi	r24, 0x80	; 128
    37a6:	56 95       	lsr	r21
    37a8:	97 95       	ror	r25
    37aa:	28 f4       	brcc	.+10     	; 0x37b6 <sqrt+0x30>
    37ac:	80 5c       	subi	r24, 0xC0	; 192
    37ae:	66 0f       	add	r22, r22
    37b0:	77 1f       	adc	r23, r23
    37b2:	88 1f       	adc	r24, r24
    37b4:	20 f0       	brcs	.+8      	; 0x37be <sqrt+0x38>
    37b6:	26 17       	cp	r18, r22
    37b8:	37 07       	cpc	r19, r23
    37ba:	48 07       	cpc	r20, r24
    37bc:	30 f4       	brcc	.+12     	; 0x37ca <sqrt+0x44>
    37be:	62 1b       	sub	r22, r18
    37c0:	73 0b       	sbc	r23, r19
    37c2:	84 0b       	sbc	r24, r20
    37c4:	20 29       	or	r18, r0
    37c6:	31 29       	or	r19, r1
    37c8:	4a 2b       	or	r20, r26
    37ca:	a6 95       	lsr	r26
    37cc:	17 94       	ror	r1
    37ce:	07 94       	ror	r0
    37d0:	20 25       	eor	r18, r0
    37d2:	31 25       	eor	r19, r1
    37d4:	4a 27       	eor	r20, r26
    37d6:	58 f7       	brcc	.-42     	; 0x37ae <sqrt+0x28>
    37d8:	66 0f       	add	r22, r22
    37da:	77 1f       	adc	r23, r23
    37dc:	88 1f       	adc	r24, r24
    37de:	20 f0       	brcs	.+8      	; 0x37e8 <sqrt+0x62>
    37e0:	26 17       	cp	r18, r22
    37e2:	37 07       	cpc	r19, r23
    37e4:	48 07       	cpc	r20, r24
    37e6:	30 f4       	brcc	.+12     	; 0x37f4 <sqrt+0x6e>
    37e8:	62 0b       	sbc	r22, r18
    37ea:	73 0b       	sbc	r23, r19
    37ec:	84 0b       	sbc	r24, r20
    37ee:	20 0d       	add	r18, r0
    37f0:	31 1d       	adc	r19, r1
    37f2:	41 1d       	adc	r20, r1
    37f4:	a0 95       	com	r26
    37f6:	81 f7       	brne	.-32     	; 0x37d8 <sqrt+0x52>
    37f8:	b9 01       	movw	r22, r18
    37fa:	84 2f       	mov	r24, r20
    37fc:	91 58       	subi	r25, 0x81	; 129
    37fe:	88 0f       	add	r24, r24
    3800:	96 95       	lsr	r25
    3802:	87 95       	ror	r24
    3804:	08 95       	ret

00003806 <square>:
    3806:	9b 01       	movw	r18, r22
    3808:	ac 01       	movw	r20, r24
    380a:	0c 94 ae 1a 	jmp	0x355c	; 0x355c <__mulsf3>

0000380e <tanh>:
    380e:	9f 93       	push	r25
    3810:	9f 77       	andi	r25, 0x7F	; 127
    3812:	fe e3       	ldi	r31, 0x3E	; 62
    3814:	80 31       	cpi	r24, 0x10	; 16
    3816:	9f 07       	cpc	r25, r31
    3818:	28 f4       	brcc	.+10     	; 0x3824 <tanh+0x16>
    381a:	ec e6       	ldi	r30, 0x6C	; 108
    381c:	f1 e0       	ldi	r31, 0x01	; 1
    381e:	0e 94 28 19 	call	0x3250	; 0x3250 <__fp_powsodd>
    3822:	25 c0       	rjmp	.+74     	; 0x386e <tanh+0x60>
    3824:	90 68       	ori	r25, 0x80	; 128
    3826:	41 e0       	ldi	r20, 0x01	; 1
    3828:	50 e0       	ldi	r21, 0x00	; 0
    382a:	0e 94 ec 19 	call	0x33d8	; 0x33d8 <ldexp>
    382e:	0e 94 cf 17 	call	0x2f9e	; 0x2f9e <exp>
    3832:	9f 93       	push	r25
    3834:	8f 93       	push	r24
    3836:	7f 93       	push	r23
    3838:	6f 93       	push	r22
    383a:	20 e0       	ldi	r18, 0x00	; 0
    383c:	30 e0       	ldi	r19, 0x00	; 0
    383e:	40 e8       	ldi	r20, 0x80	; 128
    3840:	5f e3       	ldi	r21, 0x3F	; 63
    3842:	0e 94 7e 16 	call	0x2cfc	; 0x2cfc <__addsf3>
    3846:	2f 91       	pop	r18
    3848:	3f 91       	pop	r19
    384a:	4f 91       	pop	r20
    384c:	5f 91       	pop	r21
    384e:	9f 93       	push	r25
    3850:	8f 93       	push	r24
    3852:	7f 93       	push	r23
    3854:	6f 93       	push	r22
    3856:	60 e0       	ldi	r22, 0x00	; 0
    3858:	70 e0       	ldi	r23, 0x00	; 0
    385a:	80 e8       	ldi	r24, 0x80	; 128
    385c:	9f e3       	ldi	r25, 0x3F	; 63
    385e:	0e 94 7d 16 	call	0x2cfa	; 0x2cfa <__subsf3>
    3862:	2f 91       	pop	r18
    3864:	3f 91       	pop	r19
    3866:	4f 91       	pop	r20
    3868:	5f 91       	pop	r21
    386a:	0e 94 55 17 	call	0x2eaa	; 0x2eaa <__divsf3>
    386e:	0f 90       	pop	r0
    3870:	07 fc       	sbrc	r0, 7
    3872:	90 58       	subi	r25, 0x80	; 128
    3874:	08 95       	ret

00003876 <tan>:
    3876:	df 93       	push	r29
    3878:	d9 2f       	mov	r29, r25
    387a:	0e 94 4c 19 	call	0x3298	; 0x3298 <__fp_rempio2>
    387e:	e6 95       	lsr	r30
    3880:	d7 95       	ror	r29
    3882:	2a ed       	ldi	r18, 0xDA	; 218
    3884:	3f e0       	ldi	r19, 0x0F	; 15
    3886:	49 e4       	ldi	r20, 0x49	; 73
    3888:	5f e3       	ldi	r21, 0x3F	; 63
    388a:	b3 3a       	cpi	r27, 0xA3	; 163
    388c:	62 07       	cpc	r22, r18
    388e:	73 07       	cpc	r23, r19
    3890:	84 07       	cpc	r24, r20
    3892:	95 07       	cpc	r25, r21
    3894:	d7 95       	ror	r29
    3896:	3a f0       	brmi	.+14     	; 0x38a6 <tan+0x30>
    3898:	a2 ea       	ldi	r26, 0xA2	; 162
    389a:	49 ec       	ldi	r20, 0xC9	; 201
    389c:	90 68       	ori	r25, 0x80	; 128
    389e:	0e 94 95 16 	call	0x2d2a	; 0x2d2a <__addsf3x>
    38a2:	0e 94 75 19 	call	0x32ea	; 0x32ea <__fp_round>
    38a6:	eb e7       	ldi	r30, 0x7B	; 123
    38a8:	f1 e0       	ldi	r31, 0x01	; 1
    38aa:	0e 94 28 19 	call	0x3250	; 0x3250 <__fp_powsodd>
    38ae:	dd 0f       	add	r29, r29
    38b0:	13 f0       	brvs	.+4      	; 0x38b6 <tan+0x40>
    38b2:	0e 94 e0 19 	call	0x33c0	; 0x33c0 <inverse>
    38b6:	dd 0f       	add	r29, r29
    38b8:	0b f4       	brvc	.+2      	; 0x38bc <tan+0x46>
    38ba:	90 58       	subi	r25, 0x80	; 128
    38bc:	df 91       	pop	r29
    38be:	08 95       	ret

000038c0 <__fp_norm2>:
    38c0:	91 50       	subi	r25, 0x01	; 1
    38c2:	50 40       	sbci	r21, 0x00	; 0
    38c4:	66 0f       	add	r22, r22
    38c6:	77 1f       	adc	r23, r23
    38c8:	88 1f       	adc	r24, r24
    38ca:	d2 f7       	brpl	.-12     	; 0x38c0 <__fp_norm2>
    38cc:	08 95       	ret

000038ce <dtostrf>:
    38ce:	ef 92       	push	r14
    38d0:	0f 93       	push	r16
    38d2:	1f 93       	push	r17
    38d4:	cf 93       	push	r28
    38d6:	df 93       	push	r29
    38d8:	e8 01       	movw	r28, r16
    38da:	47 fd       	sbrc	r20, 7
    38dc:	02 c0       	rjmp	.+4      	; 0x38e2 <dtostrf+0x14>
    38de:	34 e0       	ldi	r19, 0x04	; 4
    38e0:	01 c0       	rjmp	.+2      	; 0x38e4 <dtostrf+0x16>
    38e2:	34 e1       	ldi	r19, 0x14	; 20
    38e4:	04 2e       	mov	r0, r20
    38e6:	00 0c       	add	r0, r0
    38e8:	55 0b       	sbc	r21, r21
    38ea:	57 ff       	sbrs	r21, 7
    38ec:	03 c0       	rjmp	.+6      	; 0x38f4 <dtostrf+0x26>
    38ee:	51 95       	neg	r21
    38f0:	41 95       	neg	r20
    38f2:	51 09       	sbc	r21, r1
    38f4:	e3 2e       	mov	r14, r19
    38f6:	02 2f       	mov	r16, r18
    38f8:	24 2f       	mov	r18, r20
    38fa:	ae 01       	movw	r20, r28
    38fc:	0e 94 ee 1d 	call	0x3bdc	; 0x3bdc <dtoa_prf>
    3900:	ce 01       	movw	r24, r28
    3902:	df 91       	pop	r29
    3904:	cf 91       	pop	r28
    3906:	1f 91       	pop	r17
    3908:	0f 91       	pop	r16
    390a:	ef 90       	pop	r14
    390c:	08 95       	ret

0000390e <malloc>:
    390e:	0f 93       	push	r16
    3910:	1f 93       	push	r17
    3912:	cf 93       	push	r28
    3914:	df 93       	push	r29
    3916:	82 30       	cpi	r24, 0x02	; 2
    3918:	91 05       	cpc	r25, r1
    391a:	10 f4       	brcc	.+4      	; 0x3920 <malloc+0x12>
    391c:	82 e0       	ldi	r24, 0x02	; 2
    391e:	90 e0       	ldi	r25, 0x00	; 0
    3920:	e0 91 ac 06 	lds	r30, 0x06AC	; 0x8006ac <__flp>
    3924:	f0 91 ad 06 	lds	r31, 0x06AD	; 0x8006ad <__flp+0x1>
    3928:	20 e0       	ldi	r18, 0x00	; 0
    392a:	30 e0       	ldi	r19, 0x00	; 0
    392c:	a0 e0       	ldi	r26, 0x00	; 0
    392e:	b0 e0       	ldi	r27, 0x00	; 0
    3930:	30 97       	sbiw	r30, 0x00	; 0
    3932:	19 f1       	breq	.+70     	; 0x397a <malloc+0x6c>
    3934:	40 81       	ld	r20, Z
    3936:	51 81       	ldd	r21, Z+1	; 0x01
    3938:	02 81       	ldd	r16, Z+2	; 0x02
    393a:	13 81       	ldd	r17, Z+3	; 0x03
    393c:	48 17       	cp	r20, r24
    393e:	59 07       	cpc	r21, r25
    3940:	c8 f0       	brcs	.+50     	; 0x3974 <malloc+0x66>
    3942:	84 17       	cp	r24, r20
    3944:	95 07       	cpc	r25, r21
    3946:	69 f4       	brne	.+26     	; 0x3962 <malloc+0x54>
    3948:	10 97       	sbiw	r26, 0x00	; 0
    394a:	31 f0       	breq	.+12     	; 0x3958 <malloc+0x4a>
    394c:	12 96       	adiw	r26, 0x02	; 2
    394e:	0c 93       	st	X, r16
    3950:	12 97       	sbiw	r26, 0x02	; 2
    3952:	13 96       	adiw	r26, 0x03	; 3
    3954:	1c 93       	st	X, r17
    3956:	27 c0       	rjmp	.+78     	; 0x39a6 <malloc+0x98>
    3958:	00 93 ac 06 	sts	0x06AC, r16	; 0x8006ac <__flp>
    395c:	10 93 ad 06 	sts	0x06AD, r17	; 0x8006ad <__flp+0x1>
    3960:	22 c0       	rjmp	.+68     	; 0x39a6 <malloc+0x98>
    3962:	21 15       	cp	r18, r1
    3964:	31 05       	cpc	r19, r1
    3966:	19 f0       	breq	.+6      	; 0x396e <malloc+0x60>
    3968:	42 17       	cp	r20, r18
    396a:	53 07       	cpc	r21, r19
    396c:	18 f4       	brcc	.+6      	; 0x3974 <malloc+0x66>
    396e:	9a 01       	movw	r18, r20
    3970:	bd 01       	movw	r22, r26
    3972:	ef 01       	movw	r28, r30
    3974:	df 01       	movw	r26, r30
    3976:	f8 01       	movw	r30, r16
    3978:	db cf       	rjmp	.-74     	; 0x3930 <malloc+0x22>
    397a:	21 15       	cp	r18, r1
    397c:	31 05       	cpc	r19, r1
    397e:	f9 f0       	breq	.+62     	; 0x39be <malloc+0xb0>
    3980:	28 1b       	sub	r18, r24
    3982:	39 0b       	sbc	r19, r25
    3984:	24 30       	cpi	r18, 0x04	; 4
    3986:	31 05       	cpc	r19, r1
    3988:	80 f4       	brcc	.+32     	; 0x39aa <malloc+0x9c>
    398a:	8a 81       	ldd	r24, Y+2	; 0x02
    398c:	9b 81       	ldd	r25, Y+3	; 0x03
    398e:	61 15       	cp	r22, r1
    3990:	71 05       	cpc	r23, r1
    3992:	21 f0       	breq	.+8      	; 0x399c <malloc+0x8e>
    3994:	fb 01       	movw	r30, r22
    3996:	93 83       	std	Z+3, r25	; 0x03
    3998:	82 83       	std	Z+2, r24	; 0x02
    399a:	04 c0       	rjmp	.+8      	; 0x39a4 <malloc+0x96>
    399c:	90 93 ad 06 	sts	0x06AD, r25	; 0x8006ad <__flp+0x1>
    39a0:	80 93 ac 06 	sts	0x06AC, r24	; 0x8006ac <__flp>
    39a4:	fe 01       	movw	r30, r28
    39a6:	32 96       	adiw	r30, 0x02	; 2
    39a8:	44 c0       	rjmp	.+136    	; 0x3a32 <malloc+0x124>
    39aa:	fe 01       	movw	r30, r28
    39ac:	e2 0f       	add	r30, r18
    39ae:	f3 1f       	adc	r31, r19
    39b0:	81 93       	st	Z+, r24
    39b2:	91 93       	st	Z+, r25
    39b4:	22 50       	subi	r18, 0x02	; 2
    39b6:	31 09       	sbc	r19, r1
    39b8:	39 83       	std	Y+1, r19	; 0x01
    39ba:	28 83       	st	Y, r18
    39bc:	3a c0       	rjmp	.+116    	; 0x3a32 <malloc+0x124>
    39be:	20 91 aa 06 	lds	r18, 0x06AA	; 0x8006aa <__brkval>
    39c2:	30 91 ab 06 	lds	r19, 0x06AB	; 0x8006ab <__brkval+0x1>
    39c6:	23 2b       	or	r18, r19
    39c8:	41 f4       	brne	.+16     	; 0x39da <malloc+0xcc>
    39ca:	20 91 62 00 	lds	r18, 0x0062	; 0x800062 <__malloc_heap_start>
    39ce:	30 91 63 00 	lds	r19, 0x0063	; 0x800063 <__malloc_heap_start+0x1>
    39d2:	30 93 ab 06 	sts	0x06AB, r19	; 0x8006ab <__brkval+0x1>
    39d6:	20 93 aa 06 	sts	0x06AA, r18	; 0x8006aa <__brkval>
    39da:	20 91 60 00 	lds	r18, 0x0060	; 0x800060 <__DATA_REGION_ORIGIN__>
    39de:	30 91 61 00 	lds	r19, 0x0061	; 0x800061 <__DATA_REGION_ORIGIN__+0x1>
    39e2:	21 15       	cp	r18, r1
    39e4:	31 05       	cpc	r19, r1
    39e6:	41 f4       	brne	.+16     	; 0x39f8 <malloc+0xea>
    39e8:	2d b7       	in	r18, 0x3d	; 61
    39ea:	3e b7       	in	r19, 0x3e	; 62
    39ec:	40 91 64 00 	lds	r20, 0x0064	; 0x800064 <__malloc_margin>
    39f0:	50 91 65 00 	lds	r21, 0x0065	; 0x800065 <__malloc_margin+0x1>
    39f4:	24 1b       	sub	r18, r20
    39f6:	35 0b       	sbc	r19, r21
    39f8:	e0 91 aa 06 	lds	r30, 0x06AA	; 0x8006aa <__brkval>
    39fc:	f0 91 ab 06 	lds	r31, 0x06AB	; 0x8006ab <__brkval+0x1>
    3a00:	e2 17       	cp	r30, r18
    3a02:	f3 07       	cpc	r31, r19
    3a04:	a0 f4       	brcc	.+40     	; 0x3a2e <malloc+0x120>
    3a06:	2e 1b       	sub	r18, r30
    3a08:	3f 0b       	sbc	r19, r31
    3a0a:	28 17       	cp	r18, r24
    3a0c:	39 07       	cpc	r19, r25
    3a0e:	78 f0       	brcs	.+30     	; 0x3a2e <malloc+0x120>
    3a10:	ac 01       	movw	r20, r24
    3a12:	4e 5f       	subi	r20, 0xFE	; 254
    3a14:	5f 4f       	sbci	r21, 0xFF	; 255
    3a16:	24 17       	cp	r18, r20
    3a18:	35 07       	cpc	r19, r21
    3a1a:	48 f0       	brcs	.+18     	; 0x3a2e <malloc+0x120>
    3a1c:	4e 0f       	add	r20, r30
    3a1e:	5f 1f       	adc	r21, r31
    3a20:	50 93 ab 06 	sts	0x06AB, r21	; 0x8006ab <__brkval+0x1>
    3a24:	40 93 aa 06 	sts	0x06AA, r20	; 0x8006aa <__brkval>
    3a28:	81 93       	st	Z+, r24
    3a2a:	91 93       	st	Z+, r25
    3a2c:	02 c0       	rjmp	.+4      	; 0x3a32 <malloc+0x124>
    3a2e:	e0 e0       	ldi	r30, 0x00	; 0
    3a30:	f0 e0       	ldi	r31, 0x00	; 0
    3a32:	cf 01       	movw	r24, r30
    3a34:	df 91       	pop	r29
    3a36:	cf 91       	pop	r28
    3a38:	1f 91       	pop	r17
    3a3a:	0f 91       	pop	r16
    3a3c:	08 95       	ret

00003a3e <free>:
    3a3e:	cf 93       	push	r28
    3a40:	df 93       	push	r29
    3a42:	00 97       	sbiw	r24, 0x00	; 0
    3a44:	09 f4       	brne	.+2      	; 0x3a48 <free+0xa>
    3a46:	81 c0       	rjmp	.+258    	; 0x3b4a <free+0x10c>
    3a48:	fc 01       	movw	r30, r24
    3a4a:	32 97       	sbiw	r30, 0x02	; 2
    3a4c:	13 82       	std	Z+3, r1	; 0x03
    3a4e:	12 82       	std	Z+2, r1	; 0x02
    3a50:	a0 91 ac 06 	lds	r26, 0x06AC	; 0x8006ac <__flp>
    3a54:	b0 91 ad 06 	lds	r27, 0x06AD	; 0x8006ad <__flp+0x1>
    3a58:	10 97       	sbiw	r26, 0x00	; 0
    3a5a:	81 f4       	brne	.+32     	; 0x3a7c <free+0x3e>
    3a5c:	20 81       	ld	r18, Z
    3a5e:	31 81       	ldd	r19, Z+1	; 0x01
    3a60:	82 0f       	add	r24, r18
    3a62:	93 1f       	adc	r25, r19
    3a64:	20 91 aa 06 	lds	r18, 0x06AA	; 0x8006aa <__brkval>
    3a68:	30 91 ab 06 	lds	r19, 0x06AB	; 0x8006ab <__brkval+0x1>
    3a6c:	28 17       	cp	r18, r24
    3a6e:	39 07       	cpc	r19, r25
    3a70:	51 f5       	brne	.+84     	; 0x3ac6 <free+0x88>
    3a72:	f0 93 ab 06 	sts	0x06AB, r31	; 0x8006ab <__brkval+0x1>
    3a76:	e0 93 aa 06 	sts	0x06AA, r30	; 0x8006aa <__brkval>
    3a7a:	67 c0       	rjmp	.+206    	; 0x3b4a <free+0x10c>
    3a7c:	ed 01       	movw	r28, r26
    3a7e:	20 e0       	ldi	r18, 0x00	; 0
    3a80:	30 e0       	ldi	r19, 0x00	; 0
    3a82:	ce 17       	cp	r28, r30
    3a84:	df 07       	cpc	r29, r31
    3a86:	40 f4       	brcc	.+16     	; 0x3a98 <free+0x5a>
    3a88:	4a 81       	ldd	r20, Y+2	; 0x02
    3a8a:	5b 81       	ldd	r21, Y+3	; 0x03
    3a8c:	9e 01       	movw	r18, r28
    3a8e:	41 15       	cp	r20, r1
    3a90:	51 05       	cpc	r21, r1
    3a92:	f1 f0       	breq	.+60     	; 0x3ad0 <free+0x92>
    3a94:	ea 01       	movw	r28, r20
    3a96:	f5 cf       	rjmp	.-22     	; 0x3a82 <free+0x44>
    3a98:	d3 83       	std	Z+3, r29	; 0x03
    3a9a:	c2 83       	std	Z+2, r28	; 0x02
    3a9c:	40 81       	ld	r20, Z
    3a9e:	51 81       	ldd	r21, Z+1	; 0x01
    3aa0:	84 0f       	add	r24, r20
    3aa2:	95 1f       	adc	r25, r21
    3aa4:	c8 17       	cp	r28, r24
    3aa6:	d9 07       	cpc	r29, r25
    3aa8:	59 f4       	brne	.+22     	; 0x3ac0 <free+0x82>
    3aaa:	88 81       	ld	r24, Y
    3aac:	99 81       	ldd	r25, Y+1	; 0x01
    3aae:	84 0f       	add	r24, r20
    3ab0:	95 1f       	adc	r25, r21
    3ab2:	02 96       	adiw	r24, 0x02	; 2
    3ab4:	91 83       	std	Z+1, r25	; 0x01
    3ab6:	80 83       	st	Z, r24
    3ab8:	8a 81       	ldd	r24, Y+2	; 0x02
    3aba:	9b 81       	ldd	r25, Y+3	; 0x03
    3abc:	93 83       	std	Z+3, r25	; 0x03
    3abe:	82 83       	std	Z+2, r24	; 0x02
    3ac0:	21 15       	cp	r18, r1
    3ac2:	31 05       	cpc	r19, r1
    3ac4:	29 f4       	brne	.+10     	; 0x3ad0 <free+0x92>
    3ac6:	f0 93 ad 06 	sts	0x06AD, r31	; 0x8006ad <__flp+0x1>
    3aca:	e0 93 ac 06 	sts	0x06AC, r30	; 0x8006ac <__flp>
    3ace:	3d c0       	rjmp	.+122    	; 0x3b4a <free+0x10c>
    3ad0:	e9 01       	movw	r28, r18
    3ad2:	fb 83       	std	Y+3, r31	; 0x03
    3ad4:	ea 83       	std	Y+2, r30	; 0x02
    3ad6:	49 91       	ld	r20, Y+
    3ad8:	59 91       	ld	r21, Y+
    3ada:	c4 0f       	add	r28, r20
    3adc:	d5 1f       	adc	r29, r21
    3ade:	ec 17       	cp	r30, r28
    3ae0:	fd 07       	cpc	r31, r29
    3ae2:	61 f4       	brne	.+24     	; 0x3afc <free+0xbe>
    3ae4:	80 81       	ld	r24, Z
    3ae6:	91 81       	ldd	r25, Z+1	; 0x01
    3ae8:	84 0f       	add	r24, r20
    3aea:	95 1f       	adc	r25, r21
    3aec:	02 96       	adiw	r24, 0x02	; 2
    3aee:	e9 01       	movw	r28, r18
    3af0:	99 83       	std	Y+1, r25	; 0x01
    3af2:	88 83       	st	Y, r24
    3af4:	82 81       	ldd	r24, Z+2	; 0x02
    3af6:	93 81       	ldd	r25, Z+3	; 0x03
    3af8:	9b 83       	std	Y+3, r25	; 0x03
    3afa:	8a 83       	std	Y+2, r24	; 0x02
    3afc:	e0 e0       	ldi	r30, 0x00	; 0
    3afe:	f0 e0       	ldi	r31, 0x00	; 0
    3b00:	12 96       	adiw	r26, 0x02	; 2
    3b02:	8d 91       	ld	r24, X+
    3b04:	9c 91       	ld	r25, X
    3b06:	13 97       	sbiw	r26, 0x03	; 3
    3b08:	00 97       	sbiw	r24, 0x00	; 0
    3b0a:	19 f0       	breq	.+6      	; 0x3b12 <free+0xd4>
    3b0c:	fd 01       	movw	r30, r26
    3b0e:	dc 01       	movw	r26, r24
    3b10:	f7 cf       	rjmp	.-18     	; 0x3b00 <free+0xc2>
    3b12:	8d 91       	ld	r24, X+
    3b14:	9c 91       	ld	r25, X
    3b16:	11 97       	sbiw	r26, 0x01	; 1
    3b18:	9d 01       	movw	r18, r26
    3b1a:	2e 5f       	subi	r18, 0xFE	; 254
    3b1c:	3f 4f       	sbci	r19, 0xFF	; 255
    3b1e:	82 0f       	add	r24, r18
    3b20:	93 1f       	adc	r25, r19
    3b22:	20 91 aa 06 	lds	r18, 0x06AA	; 0x8006aa <__brkval>
    3b26:	30 91 ab 06 	lds	r19, 0x06AB	; 0x8006ab <__brkval+0x1>
    3b2a:	28 17       	cp	r18, r24
    3b2c:	39 07       	cpc	r19, r25
    3b2e:	69 f4       	brne	.+26     	; 0x3b4a <free+0x10c>
    3b30:	30 97       	sbiw	r30, 0x00	; 0
    3b32:	29 f4       	brne	.+10     	; 0x3b3e <free+0x100>
    3b34:	10 92 ad 06 	sts	0x06AD, r1	; 0x8006ad <__flp+0x1>
    3b38:	10 92 ac 06 	sts	0x06AC, r1	; 0x8006ac <__flp>
    3b3c:	02 c0       	rjmp	.+4      	; 0x3b42 <free+0x104>
    3b3e:	13 82       	std	Z+3, r1	; 0x03
    3b40:	12 82       	std	Z+2, r1	; 0x02
    3b42:	b0 93 ab 06 	sts	0x06AB, r27	; 0x8006ab <__brkval+0x1>
    3b46:	a0 93 aa 06 	sts	0x06AA, r26	; 0x8006aa <__brkval>
    3b4a:	df 91       	pop	r29
    3b4c:	cf 91       	pop	r28
    3b4e:	08 95       	ret

00003b50 <atof>:
    3b50:	66 27       	eor	r22, r22
    3b52:	77 27       	eor	r23, r23
    3b54:	0c 94 48 1f 	jmp	0x3e90	; 0x3e90 <strtod>

00003b58 <isupper>:
    3b58:	85 fd       	sbrc	r24, 5
    3b5a:	0c 94 6e 21 	jmp	0x42dc	; 0x42dc <__ctype_isfalse>

00003b5e <isalpha>:
    3b5e:	80 62       	ori	r24, 0x20	; 32

00003b60 <islower>:
    3b60:	91 11       	cpse	r25, r1
    3b62:	0c 94 6e 21 	jmp	0x42dc	; 0x42dc <__ctype_isfalse>
    3b66:	81 56       	subi	r24, 0x61	; 97
    3b68:	8a 51       	subi	r24, 0x1A	; 26
    3b6a:	d8 f7       	brcc	.-10     	; 0x3b62 <islower+0x2>
    3b6c:	08 95       	ret

00003b6e <isspace>:
    3b6e:	91 11       	cpse	r25, r1
    3b70:	0c 94 6e 21 	jmp	0x42dc	; 0x42dc <__ctype_isfalse>
    3b74:	80 32       	cpi	r24, 0x20	; 32
    3b76:	19 f0       	breq	.+6      	; 0x3b7e <isspace+0x10>
    3b78:	89 50       	subi	r24, 0x09	; 9
    3b7a:	85 50       	subi	r24, 0x05	; 5
    3b7c:	c8 f7       	brcc	.-14     	; 0x3b70 <isspace+0x2>
    3b7e:	08 95       	ret

00003b80 <toupper>:
    3b80:	91 11       	cpse	r25, r1
    3b82:	08 95       	ret
    3b84:	81 56       	subi	r24, 0x61	; 97
    3b86:	8a 51       	subi	r24, 0x1A	; 26
    3b88:	08 f4       	brcc	.+2      	; 0x3b8c <toupper+0xc>
    3b8a:	80 52       	subi	r24, 0x20	; 32
    3b8c:	85 58       	subi	r24, 0x85	; 133
    3b8e:	08 95       	ret

00003b90 <strcat>:
    3b90:	fb 01       	movw	r30, r22
    3b92:	dc 01       	movw	r26, r24
    3b94:	0d 90       	ld	r0, X+
    3b96:	00 20       	and	r0, r0
    3b98:	e9 f7       	brne	.-6      	; 0x3b94 <strcat+0x4>
    3b9a:	11 97       	sbiw	r26, 0x01	; 1
    3b9c:	01 90       	ld	r0, Z+
    3b9e:	0d 92       	st	X+, r0
    3ba0:	00 20       	and	r0, r0
    3ba2:	e1 f7       	brne	.-8      	; 0x3b9c <strcat+0xc>
    3ba4:	08 95       	ret

00003ba6 <strchr>:
    3ba6:	fc 01       	movw	r30, r24
    3ba8:	81 91       	ld	r24, Z+
    3baa:	86 17       	cp	r24, r22
    3bac:	21 f0       	breq	.+8      	; 0x3bb6 <strchr+0x10>
    3bae:	88 23       	and	r24, r24
    3bb0:	d9 f7       	brne	.-10     	; 0x3ba8 <strchr+0x2>
    3bb2:	99 27       	eor	r25, r25
    3bb4:	08 95       	ret
    3bb6:	31 97       	sbiw	r30, 0x01	; 1
    3bb8:	cf 01       	movw	r24, r30
    3bba:	08 95       	ret

00003bbc <strcmp>:
    3bbc:	fb 01       	movw	r30, r22
    3bbe:	dc 01       	movw	r26, r24
    3bc0:	8d 91       	ld	r24, X+
    3bc2:	01 90       	ld	r0, Z+
    3bc4:	80 19       	sub	r24, r0
    3bc6:	01 10       	cpse	r0, r1
    3bc8:	d9 f3       	breq	.-10     	; 0x3bc0 <strcmp+0x4>
    3bca:	99 0b       	sbc	r25, r25
    3bcc:	08 95       	ret

00003bce <strcpy>:
    3bce:	fb 01       	movw	r30, r22
    3bd0:	dc 01       	movw	r26, r24
    3bd2:	01 90       	ld	r0, Z+
    3bd4:	0d 92       	st	X+, r0
    3bd6:	00 20       	and	r0, r0
    3bd8:	e1 f7       	brne	.-8      	; 0x3bd2 <strcpy+0x4>
    3bda:	08 95       	ret

00003bdc <dtoa_prf>:
    3bdc:	a9 e0       	ldi	r26, 0x09	; 9
    3bde:	b0 e0       	ldi	r27, 0x00	; 0
    3be0:	e4 ef       	ldi	r30, 0xF4	; 244
    3be2:	fd e1       	ldi	r31, 0x1D	; 29
    3be4:	0c 94 9a 21 	jmp	0x4334	; 0x4334 <__prologue_saves__+0xc>
    3be8:	6a 01       	movw	r12, r20
    3bea:	12 2f       	mov	r17, r18
    3bec:	b0 2e       	mov	r11, r16
    3bee:	2b e3       	ldi	r18, 0x3B	; 59
    3bf0:	20 17       	cp	r18, r16
    3bf2:	20 f0       	brcs	.+8      	; 0x3bfc <dtoa_prf+0x20>
    3bf4:	ff 24       	eor	r15, r15
    3bf6:	f3 94       	inc	r15
    3bf8:	f0 0e       	add	r15, r16
    3bfa:	02 c0       	rjmp	.+4      	; 0x3c00 <dtoa_prf+0x24>
    3bfc:	2c e3       	ldi	r18, 0x3C	; 60
    3bfe:	f2 2e       	mov	r15, r18
    3c00:	0f 2d       	mov	r16, r15
    3c02:	27 e0       	ldi	r18, 0x07	; 7
    3c04:	ae 01       	movw	r20, r28
    3c06:	4f 5f       	subi	r20, 0xFF	; 255
    3c08:	5f 4f       	sbci	r21, 0xFF	; 255
    3c0a:	0e 94 96 20 	call	0x412c	; 0x412c <__ftoa_engine>
    3c0e:	bc 01       	movw	r22, r24
    3c10:	49 81       	ldd	r20, Y+1	; 0x01
    3c12:	84 2f       	mov	r24, r20
    3c14:	89 70       	andi	r24, 0x09	; 9
    3c16:	81 30       	cpi	r24, 0x01	; 1
    3c18:	31 f0       	breq	.+12     	; 0x3c26 <dtoa_prf+0x4a>
    3c1a:	e1 fc       	sbrc	r14, 1
    3c1c:	06 c0       	rjmp	.+12     	; 0x3c2a <dtoa_prf+0x4e>
    3c1e:	e0 fe       	sbrs	r14, 0
    3c20:	06 c0       	rjmp	.+12     	; 0x3c2e <dtoa_prf+0x52>
    3c22:	90 e2       	ldi	r25, 0x20	; 32
    3c24:	05 c0       	rjmp	.+10     	; 0x3c30 <dtoa_prf+0x54>
    3c26:	9d e2       	ldi	r25, 0x2D	; 45
    3c28:	03 c0       	rjmp	.+6      	; 0x3c30 <dtoa_prf+0x54>
    3c2a:	9b e2       	ldi	r25, 0x2B	; 43
    3c2c:	01 c0       	rjmp	.+2      	; 0x3c30 <dtoa_prf+0x54>
    3c2e:	90 e0       	ldi	r25, 0x00	; 0
    3c30:	5e 2d       	mov	r21, r14
    3c32:	50 71       	andi	r21, 0x10	; 16
    3c34:	43 ff       	sbrs	r20, 3
    3c36:	3c c0       	rjmp	.+120    	; 0x3cb0 <dtoa_prf+0xd4>
    3c38:	91 11       	cpse	r25, r1
    3c3a:	02 c0       	rjmp	.+4      	; 0x3c40 <dtoa_prf+0x64>
    3c3c:	83 e0       	ldi	r24, 0x03	; 3
    3c3e:	01 c0       	rjmp	.+2      	; 0x3c42 <dtoa_prf+0x66>
    3c40:	84 e0       	ldi	r24, 0x04	; 4
    3c42:	81 17       	cp	r24, r17
    3c44:	18 f4       	brcc	.+6      	; 0x3c4c <dtoa_prf+0x70>
    3c46:	21 2f       	mov	r18, r17
    3c48:	28 1b       	sub	r18, r24
    3c4a:	01 c0       	rjmp	.+2      	; 0x3c4e <dtoa_prf+0x72>
    3c4c:	20 e0       	ldi	r18, 0x00	; 0
    3c4e:	51 11       	cpse	r21, r1
    3c50:	0b c0       	rjmp	.+22     	; 0x3c68 <dtoa_prf+0x8c>
    3c52:	f6 01       	movw	r30, r12
    3c54:	82 2f       	mov	r24, r18
    3c56:	30 e2       	ldi	r19, 0x20	; 32
    3c58:	88 23       	and	r24, r24
    3c5a:	19 f0       	breq	.+6      	; 0x3c62 <dtoa_prf+0x86>
    3c5c:	31 93       	st	Z+, r19
    3c5e:	81 50       	subi	r24, 0x01	; 1
    3c60:	fb cf       	rjmp	.-10     	; 0x3c58 <dtoa_prf+0x7c>
    3c62:	c2 0e       	add	r12, r18
    3c64:	d1 1c       	adc	r13, r1
    3c66:	20 e0       	ldi	r18, 0x00	; 0
    3c68:	99 23       	and	r25, r25
    3c6a:	29 f0       	breq	.+10     	; 0x3c76 <dtoa_prf+0x9a>
    3c6c:	d6 01       	movw	r26, r12
    3c6e:	9c 93       	st	X, r25
    3c70:	f6 01       	movw	r30, r12
    3c72:	31 96       	adiw	r30, 0x01	; 1
    3c74:	6f 01       	movw	r12, r30
    3c76:	c6 01       	movw	r24, r12
    3c78:	03 96       	adiw	r24, 0x03	; 3
    3c7a:	e2 fe       	sbrs	r14, 2
    3c7c:	0a c0       	rjmp	.+20     	; 0x3c92 <dtoa_prf+0xb6>
    3c7e:	3e e4       	ldi	r19, 0x4E	; 78
    3c80:	d6 01       	movw	r26, r12
    3c82:	3c 93       	st	X, r19
    3c84:	41 e4       	ldi	r20, 0x41	; 65
    3c86:	11 96       	adiw	r26, 0x01	; 1
    3c88:	4c 93       	st	X, r20
    3c8a:	11 97       	sbiw	r26, 0x01	; 1
    3c8c:	12 96       	adiw	r26, 0x02	; 2
    3c8e:	3c 93       	st	X, r19
    3c90:	06 c0       	rjmp	.+12     	; 0x3c9e <dtoa_prf+0xc2>
    3c92:	3e e6       	ldi	r19, 0x6E	; 110
    3c94:	f6 01       	movw	r30, r12
    3c96:	30 83       	st	Z, r19
    3c98:	41 e6       	ldi	r20, 0x61	; 97
    3c9a:	41 83       	std	Z+1, r20	; 0x01
    3c9c:	32 83       	std	Z+2, r19	; 0x02
    3c9e:	fc 01       	movw	r30, r24
    3ca0:	32 2f       	mov	r19, r18
    3ca2:	40 e2       	ldi	r20, 0x20	; 32
    3ca4:	33 23       	and	r19, r19
    3ca6:	09 f4       	brne	.+2      	; 0x3caa <dtoa_prf+0xce>
    3ca8:	42 c0       	rjmp	.+132    	; 0x3d2e <dtoa_prf+0x152>
    3caa:	41 93       	st	Z+, r20
    3cac:	31 50       	subi	r19, 0x01	; 1
    3cae:	fa cf       	rjmp	.-12     	; 0x3ca4 <dtoa_prf+0xc8>
    3cb0:	42 ff       	sbrs	r20, 2
    3cb2:	44 c0       	rjmp	.+136    	; 0x3d3c <dtoa_prf+0x160>
    3cb4:	91 11       	cpse	r25, r1
    3cb6:	02 c0       	rjmp	.+4      	; 0x3cbc <dtoa_prf+0xe0>
    3cb8:	83 e0       	ldi	r24, 0x03	; 3
    3cba:	01 c0       	rjmp	.+2      	; 0x3cbe <dtoa_prf+0xe2>
    3cbc:	84 e0       	ldi	r24, 0x04	; 4
    3cbe:	81 17       	cp	r24, r17
    3cc0:	18 f4       	brcc	.+6      	; 0x3cc8 <dtoa_prf+0xec>
    3cc2:	21 2f       	mov	r18, r17
    3cc4:	28 1b       	sub	r18, r24
    3cc6:	01 c0       	rjmp	.+2      	; 0x3cca <dtoa_prf+0xee>
    3cc8:	20 e0       	ldi	r18, 0x00	; 0
    3cca:	51 11       	cpse	r21, r1
    3ccc:	0b c0       	rjmp	.+22     	; 0x3ce4 <dtoa_prf+0x108>
    3cce:	f6 01       	movw	r30, r12
    3cd0:	82 2f       	mov	r24, r18
    3cd2:	30 e2       	ldi	r19, 0x20	; 32
    3cd4:	88 23       	and	r24, r24
    3cd6:	19 f0       	breq	.+6      	; 0x3cde <dtoa_prf+0x102>
    3cd8:	31 93       	st	Z+, r19
    3cda:	81 50       	subi	r24, 0x01	; 1
    3cdc:	fb cf       	rjmp	.-10     	; 0x3cd4 <dtoa_prf+0xf8>
    3cde:	c2 0e       	add	r12, r18
    3ce0:	d1 1c       	adc	r13, r1
    3ce2:	20 e0       	ldi	r18, 0x00	; 0
    3ce4:	99 23       	and	r25, r25
    3ce6:	29 f0       	breq	.+10     	; 0x3cf2 <dtoa_prf+0x116>
    3ce8:	d6 01       	movw	r26, r12
    3cea:	9c 93       	st	X, r25
    3cec:	f6 01       	movw	r30, r12
    3cee:	31 96       	adiw	r30, 0x01	; 1
    3cf0:	6f 01       	movw	r12, r30
    3cf2:	c6 01       	movw	r24, r12
    3cf4:	03 96       	adiw	r24, 0x03	; 3
    3cf6:	e2 fe       	sbrs	r14, 2
    3cf8:	0b c0       	rjmp	.+22     	; 0x3d10 <dtoa_prf+0x134>
    3cfa:	39 e4       	ldi	r19, 0x49	; 73
    3cfc:	d6 01       	movw	r26, r12
    3cfe:	3c 93       	st	X, r19
    3d00:	3e e4       	ldi	r19, 0x4E	; 78
    3d02:	11 96       	adiw	r26, 0x01	; 1
    3d04:	3c 93       	st	X, r19
    3d06:	11 97       	sbiw	r26, 0x01	; 1
    3d08:	36 e4       	ldi	r19, 0x46	; 70
    3d0a:	12 96       	adiw	r26, 0x02	; 2
    3d0c:	3c 93       	st	X, r19
    3d0e:	07 c0       	rjmp	.+14     	; 0x3d1e <dtoa_prf+0x142>
    3d10:	39 e6       	ldi	r19, 0x69	; 105
    3d12:	f6 01       	movw	r30, r12
    3d14:	30 83       	st	Z, r19
    3d16:	3e e6       	ldi	r19, 0x6E	; 110
    3d18:	31 83       	std	Z+1, r19	; 0x01
    3d1a:	36 e6       	ldi	r19, 0x66	; 102
    3d1c:	32 83       	std	Z+2, r19	; 0x02
    3d1e:	fc 01       	movw	r30, r24
    3d20:	32 2f       	mov	r19, r18
    3d22:	40 e2       	ldi	r20, 0x20	; 32
    3d24:	33 23       	and	r19, r19
    3d26:	19 f0       	breq	.+6      	; 0x3d2e <dtoa_prf+0x152>
    3d28:	41 93       	st	Z+, r20
    3d2a:	31 50       	subi	r19, 0x01	; 1
    3d2c:	fb cf       	rjmp	.-10     	; 0x3d24 <dtoa_prf+0x148>
    3d2e:	fc 01       	movw	r30, r24
    3d30:	e2 0f       	add	r30, r18
    3d32:	f1 1d       	adc	r31, r1
    3d34:	10 82       	st	Z, r1
    3d36:	8e ef       	ldi	r24, 0xFE	; 254
    3d38:	9f ef       	ldi	r25, 0xFF	; 255
    3d3a:	a6 c0       	rjmp	.+332    	; 0x3e88 <dtoa_prf+0x2ac>
    3d3c:	21 e0       	ldi	r18, 0x01	; 1
    3d3e:	30 e0       	ldi	r19, 0x00	; 0
    3d40:	91 11       	cpse	r25, r1
    3d42:	02 c0       	rjmp	.+4      	; 0x3d48 <dtoa_prf+0x16c>
    3d44:	20 e0       	ldi	r18, 0x00	; 0
    3d46:	30 e0       	ldi	r19, 0x00	; 0
    3d48:	16 16       	cp	r1, r22
    3d4a:	17 06       	cpc	r1, r23
    3d4c:	1c f4       	brge	.+6      	; 0x3d54 <dtoa_prf+0x178>
    3d4e:	fb 01       	movw	r30, r22
    3d50:	31 96       	adiw	r30, 0x01	; 1
    3d52:	02 c0       	rjmp	.+4      	; 0x3d58 <dtoa_prf+0x17c>
    3d54:	e1 e0       	ldi	r30, 0x01	; 1
    3d56:	f0 e0       	ldi	r31, 0x00	; 0
    3d58:	2e 0f       	add	r18, r30
    3d5a:	3f 1f       	adc	r19, r31
    3d5c:	bb 20       	and	r11, r11
    3d5e:	21 f0       	breq	.+8      	; 0x3d68 <dtoa_prf+0x18c>
    3d60:	eb 2d       	mov	r30, r11
    3d62:	f0 e0       	ldi	r31, 0x00	; 0
    3d64:	31 96       	adiw	r30, 0x01	; 1
    3d66:	02 c0       	rjmp	.+4      	; 0x3d6c <dtoa_prf+0x190>
    3d68:	e0 e0       	ldi	r30, 0x00	; 0
    3d6a:	f0 e0       	ldi	r31, 0x00	; 0
    3d6c:	2e 0f       	add	r18, r30
    3d6e:	3f 1f       	adc	r19, r31
    3d70:	e1 2f       	mov	r30, r17
    3d72:	f0 e0       	ldi	r31, 0x00	; 0
    3d74:	2e 17       	cp	r18, r30
    3d76:	3f 07       	cpc	r19, r31
    3d78:	1c f4       	brge	.+6      	; 0x3d80 <dtoa_prf+0x1a4>
    3d7a:	12 1b       	sub	r17, r18
    3d7c:	21 2f       	mov	r18, r17
    3d7e:	01 c0       	rjmp	.+2      	; 0x3d82 <dtoa_prf+0x1a6>
    3d80:	20 e0       	ldi	r18, 0x00	; 0
    3d82:	8e 2d       	mov	r24, r14
    3d84:	88 71       	andi	r24, 0x18	; 24
    3d86:	59 f4       	brne	.+22     	; 0x3d9e <dtoa_prf+0x1c2>
    3d88:	f6 01       	movw	r30, r12
    3d8a:	82 2f       	mov	r24, r18
    3d8c:	30 e2       	ldi	r19, 0x20	; 32
    3d8e:	88 23       	and	r24, r24
    3d90:	19 f0       	breq	.+6      	; 0x3d98 <dtoa_prf+0x1bc>
    3d92:	31 93       	st	Z+, r19
    3d94:	81 50       	subi	r24, 0x01	; 1
    3d96:	fb cf       	rjmp	.-10     	; 0x3d8e <dtoa_prf+0x1b2>
    3d98:	c2 0e       	add	r12, r18
    3d9a:	d1 1c       	adc	r13, r1
    3d9c:	20 e0       	ldi	r18, 0x00	; 0
    3d9e:	99 23       	and	r25, r25
    3da0:	29 f0       	breq	.+10     	; 0x3dac <dtoa_prf+0x1d0>
    3da2:	d6 01       	movw	r26, r12
    3da4:	9c 93       	st	X, r25
    3da6:	f6 01       	movw	r30, r12
    3da8:	31 96       	adiw	r30, 0x01	; 1
    3daa:	6f 01       	movw	r12, r30
    3dac:	51 11       	cpse	r21, r1
    3dae:	0b c0       	rjmp	.+22     	; 0x3dc6 <dtoa_prf+0x1ea>
    3db0:	f6 01       	movw	r30, r12
    3db2:	82 2f       	mov	r24, r18
    3db4:	90 e3       	ldi	r25, 0x30	; 48
    3db6:	88 23       	and	r24, r24
    3db8:	19 f0       	breq	.+6      	; 0x3dc0 <dtoa_prf+0x1e4>
    3dba:	91 93       	st	Z+, r25
    3dbc:	81 50       	subi	r24, 0x01	; 1
    3dbe:	fb cf       	rjmp	.-10     	; 0x3db6 <dtoa_prf+0x1da>
    3dc0:	c2 0e       	add	r12, r18
    3dc2:	d1 1c       	adc	r13, r1
    3dc4:	20 e0       	ldi	r18, 0x00	; 0
    3dc6:	0f 2d       	mov	r16, r15
    3dc8:	06 0f       	add	r16, r22
    3dca:	9a 81       	ldd	r25, Y+2	; 0x02
    3dcc:	34 2f       	mov	r19, r20
    3dce:	30 71       	andi	r19, 0x10	; 16
    3dd0:	44 ff       	sbrs	r20, 4
    3dd2:	03 c0       	rjmp	.+6      	; 0x3dda <dtoa_prf+0x1fe>
    3dd4:	91 33       	cpi	r25, 0x31	; 49
    3dd6:	09 f4       	brne	.+2      	; 0x3dda <dtoa_prf+0x1fe>
    3dd8:	01 50       	subi	r16, 0x01	; 1
    3dda:	10 16       	cp	r1, r16
    3ddc:	24 f4       	brge	.+8      	; 0x3de6 <dtoa_prf+0x20a>
    3dde:	09 30       	cpi	r16, 0x09	; 9
    3de0:	18 f0       	brcs	.+6      	; 0x3de8 <dtoa_prf+0x20c>
    3de2:	08 e0       	ldi	r16, 0x08	; 8
    3de4:	01 c0       	rjmp	.+2      	; 0x3de8 <dtoa_prf+0x20c>
    3de6:	01 e0       	ldi	r16, 0x01	; 1
    3de8:	ab 01       	movw	r20, r22
    3dea:	77 ff       	sbrs	r23, 7
    3dec:	02 c0       	rjmp	.+4      	; 0x3df2 <dtoa_prf+0x216>
    3dee:	40 e0       	ldi	r20, 0x00	; 0
    3df0:	50 e0       	ldi	r21, 0x00	; 0
    3df2:	fb 01       	movw	r30, r22
    3df4:	e4 1b       	sub	r30, r20
    3df6:	f5 0b       	sbc	r31, r21
    3df8:	a1 e0       	ldi	r26, 0x01	; 1
    3dfa:	b0 e0       	ldi	r27, 0x00	; 0
    3dfc:	ac 0f       	add	r26, r28
    3dfe:	bd 1f       	adc	r27, r29
    3e00:	ea 0f       	add	r30, r26
    3e02:	fb 1f       	adc	r31, r27
    3e04:	8e e2       	ldi	r24, 0x2E	; 46
    3e06:	a8 2e       	mov	r10, r24
    3e08:	4b 01       	movw	r8, r22
    3e0a:	80 1a       	sub	r8, r16
    3e0c:	91 08       	sbc	r9, r1
    3e0e:	0b 2d       	mov	r16, r11
    3e10:	10 e0       	ldi	r17, 0x00	; 0
    3e12:	11 95       	neg	r17
    3e14:	01 95       	neg	r16
    3e16:	11 09       	sbc	r17, r1
    3e18:	4f 3f       	cpi	r20, 0xFF	; 255
    3e1a:	bf ef       	ldi	r27, 0xFF	; 255
    3e1c:	5b 07       	cpc	r21, r27
    3e1e:	21 f4       	brne	.+8      	; 0x3e28 <dtoa_prf+0x24c>
    3e20:	d6 01       	movw	r26, r12
    3e22:	ac 92       	st	X, r10
    3e24:	11 96       	adiw	r26, 0x01	; 1
    3e26:	6d 01       	movw	r12, r26
    3e28:	64 17       	cp	r22, r20
    3e2a:	75 07       	cpc	r23, r21
    3e2c:	2c f0       	brlt	.+10     	; 0x3e38 <dtoa_prf+0x25c>
    3e2e:	84 16       	cp	r8, r20
    3e30:	95 06       	cpc	r9, r21
    3e32:	14 f4       	brge	.+4      	; 0x3e38 <dtoa_prf+0x25c>
    3e34:	81 81       	ldd	r24, Z+1	; 0x01
    3e36:	01 c0       	rjmp	.+2      	; 0x3e3a <dtoa_prf+0x25e>
    3e38:	80 e3       	ldi	r24, 0x30	; 48
    3e3a:	41 50       	subi	r20, 0x01	; 1
    3e3c:	51 09       	sbc	r21, r1
    3e3e:	31 96       	adiw	r30, 0x01	; 1
    3e40:	d6 01       	movw	r26, r12
    3e42:	11 96       	adiw	r26, 0x01	; 1
    3e44:	7d 01       	movw	r14, r26
    3e46:	40 17       	cp	r20, r16
    3e48:	51 07       	cpc	r21, r17
    3e4a:	24 f0       	brlt	.+8      	; 0x3e54 <dtoa_prf+0x278>
    3e4c:	d6 01       	movw	r26, r12
    3e4e:	8c 93       	st	X, r24
    3e50:	67 01       	movw	r12, r14
    3e52:	e2 cf       	rjmp	.-60     	; 0x3e18 <dtoa_prf+0x23c>
    3e54:	64 17       	cp	r22, r20
    3e56:	75 07       	cpc	r23, r21
    3e58:	39 f4       	brne	.+14     	; 0x3e68 <dtoa_prf+0x28c>
    3e5a:	96 33       	cpi	r25, 0x36	; 54
    3e5c:	20 f4       	brcc	.+8      	; 0x3e66 <dtoa_prf+0x28a>
    3e5e:	95 33       	cpi	r25, 0x35	; 53
    3e60:	19 f4       	brne	.+6      	; 0x3e68 <dtoa_prf+0x28c>
    3e62:	31 11       	cpse	r19, r1
    3e64:	01 c0       	rjmp	.+2      	; 0x3e68 <dtoa_prf+0x28c>
    3e66:	81 e3       	ldi	r24, 0x31	; 49
    3e68:	f6 01       	movw	r30, r12
    3e6a:	80 83       	st	Z, r24
    3e6c:	f7 01       	movw	r30, r14
    3e6e:	82 2f       	mov	r24, r18
    3e70:	90 e2       	ldi	r25, 0x20	; 32
    3e72:	88 23       	and	r24, r24
    3e74:	19 f0       	breq	.+6      	; 0x3e7c <dtoa_prf+0x2a0>
    3e76:	91 93       	st	Z+, r25
    3e78:	81 50       	subi	r24, 0x01	; 1
    3e7a:	fb cf       	rjmp	.-10     	; 0x3e72 <dtoa_prf+0x296>
    3e7c:	f7 01       	movw	r30, r14
    3e7e:	e2 0f       	add	r30, r18
    3e80:	f1 1d       	adc	r31, r1
    3e82:	10 82       	st	Z, r1
    3e84:	80 e0       	ldi	r24, 0x00	; 0
    3e86:	90 e0       	ldi	r25, 0x00	; 0
    3e88:	29 96       	adiw	r28, 0x09	; 9
    3e8a:	ec e0       	ldi	r30, 0x0C	; 12
    3e8c:	0c 94 b6 21 	jmp	0x436c	; 0x436c <__epilogue_restores__+0xc>

00003e90 <strtod>:
    3e90:	a0 e0       	ldi	r26, 0x00	; 0
    3e92:	b0 e0       	ldi	r27, 0x00	; 0
    3e94:	ee e4       	ldi	r30, 0x4E	; 78
    3e96:	ff e1       	ldi	r31, 0x1F	; 31
    3e98:	0c 94 9a 21 	jmp	0x4334	; 0x4334 <__prologue_saves__+0xc>
    3e9c:	ec 01       	movw	r28, r24
    3e9e:	6b 01       	movw	r12, r22
    3ea0:	61 15       	cp	r22, r1
    3ea2:	71 05       	cpc	r23, r1
    3ea4:	19 f0       	breq	.+6      	; 0x3eac <strtod+0x1c>
    3ea6:	fb 01       	movw	r30, r22
    3ea8:	91 83       	std	Z+1, r25	; 0x01
    3eaa:	80 83       	st	Z, r24
    3eac:	7e 01       	movw	r14, r28
    3eae:	ff ef       	ldi	r31, 0xFF	; 255
    3eb0:	ef 1a       	sub	r14, r31
    3eb2:	ff 0a       	sbc	r15, r31
    3eb4:	08 81       	ld	r16, Y
    3eb6:	80 2f       	mov	r24, r16
    3eb8:	90 e0       	ldi	r25, 0x00	; 0
    3eba:	0e 94 b7 1d 	call	0x3b6e	; 0x3b6e <isspace>
    3ebe:	89 2b       	or	r24, r25
    3ec0:	11 f0       	breq	.+4      	; 0x3ec6 <strtod+0x36>
    3ec2:	e7 01       	movw	r28, r14
    3ec4:	f3 cf       	rjmp	.-26     	; 0x3eac <strtod+0x1c>
    3ec6:	0d 32       	cpi	r16, 0x2D	; 45
    3ec8:	39 f4       	brne	.+14     	; 0x3ed8 <strtod+0x48>
    3eca:	7e 01       	movw	r14, r28
    3ecc:	82 e0       	ldi	r24, 0x02	; 2
    3ece:	e8 0e       	add	r14, r24
    3ed0:	f1 1c       	adc	r15, r1
    3ed2:	09 81       	ldd	r16, Y+1	; 0x01
    3ed4:	11 e0       	ldi	r17, 0x01	; 1
    3ed6:	08 c0       	rjmp	.+16     	; 0x3ee8 <strtod+0x58>
    3ed8:	0b 32       	cpi	r16, 0x2B	; 43
    3eda:	29 f4       	brne	.+10     	; 0x3ee6 <strtod+0x56>
    3edc:	7e 01       	movw	r14, r28
    3ede:	92 e0       	ldi	r25, 0x02	; 2
    3ee0:	e9 0e       	add	r14, r25
    3ee2:	f1 1c       	adc	r15, r1
    3ee4:	09 81       	ldd	r16, Y+1	; 0x01
    3ee6:	10 e0       	ldi	r17, 0x00	; 0
    3ee8:	e7 01       	movw	r28, r14
    3eea:	21 97       	sbiw	r28, 0x01	; 1
    3eec:	43 e0       	ldi	r20, 0x03	; 3
    3eee:	50 e0       	ldi	r21, 0x00	; 0
    3ef0:	66 ea       	ldi	r22, 0xA6	; 166
    3ef2:	71 e0       	ldi	r23, 0x01	; 1
    3ef4:	ce 01       	movw	r24, r28
    3ef6:	0e 94 71 21 	call	0x42e2	; 0x42e2 <strncasecmp_P>
    3efa:	89 2b       	or	r24, r25
    3efc:	c1 f4       	brne	.+48     	; 0x3f2e <strtod+0x9e>
    3efe:	23 96       	adiw	r28, 0x03	; 3
    3f00:	45 e0       	ldi	r20, 0x05	; 5
    3f02:	50 e0       	ldi	r21, 0x00	; 0
    3f04:	61 ea       	ldi	r22, 0xA1	; 161
    3f06:	71 e0       	ldi	r23, 0x01	; 1
    3f08:	ce 01       	movw	r24, r28
    3f0a:	0e 94 71 21 	call	0x42e2	; 0x42e2 <strncasecmp_P>
    3f0e:	89 2b       	or	r24, r25
    3f10:	09 f4       	brne	.+2      	; 0x3f14 <strtod+0x84>
    3f12:	25 96       	adiw	r28, 0x05	; 5
    3f14:	c1 14       	cp	r12, r1
    3f16:	d1 04       	cpc	r13, r1
    3f18:	19 f0       	breq	.+6      	; 0x3f20 <strtod+0x90>
    3f1a:	f6 01       	movw	r30, r12
    3f1c:	d1 83       	std	Z+1, r29	; 0x01
    3f1e:	c0 83       	st	Z, r28
    3f20:	11 11       	cpse	r17, r1
    3f22:	f6 c0       	rjmp	.+492    	; 0x4110 <strtod+0x280>
    3f24:	60 e0       	ldi	r22, 0x00	; 0
    3f26:	70 e0       	ldi	r23, 0x00	; 0
    3f28:	80 e8       	ldi	r24, 0x80	; 128
    3f2a:	9f e7       	ldi	r25, 0x7F	; 127
    3f2c:	fa c0       	rjmp	.+500    	; 0x4122 <strtod+0x292>
    3f2e:	43 e0       	ldi	r20, 0x03	; 3
    3f30:	50 e0       	ldi	r21, 0x00	; 0
    3f32:	6e e9       	ldi	r22, 0x9E	; 158
    3f34:	71 e0       	ldi	r23, 0x01	; 1
    3f36:	ce 01       	movw	r24, r28
    3f38:	0e 94 71 21 	call	0x42e2	; 0x42e2 <strncasecmp_P>
    3f3c:	89 2b       	or	r24, r25
    3f3e:	59 f4       	brne	.+22     	; 0x3f56 <strtod+0xc6>
    3f40:	c1 14       	cp	r12, r1
    3f42:	d1 04       	cpc	r13, r1
    3f44:	09 f4       	brne	.+2      	; 0x3f48 <strtod+0xb8>
    3f46:	e9 c0       	rjmp	.+466    	; 0x411a <strtod+0x28a>
    3f48:	f2 e0       	ldi	r31, 0x02	; 2
    3f4a:	ef 0e       	add	r14, r31
    3f4c:	f1 1c       	adc	r15, r1
    3f4e:	f6 01       	movw	r30, r12
    3f50:	f1 82       	std	Z+1, r15	; 0x01
    3f52:	e0 82       	st	Z, r14
    3f54:	e2 c0       	rjmp	.+452    	; 0x411a <strtod+0x28a>
    3f56:	20 e0       	ldi	r18, 0x00	; 0
    3f58:	30 e0       	ldi	r19, 0x00	; 0
    3f5a:	a9 01       	movw	r20, r18
    3f5c:	c0 e0       	ldi	r28, 0x00	; 0
    3f5e:	d0 e0       	ldi	r29, 0x00	; 0
    3f60:	f7 01       	movw	r30, r14
    3f62:	80 ed       	ldi	r24, 0xD0	; 208
    3f64:	a8 2e       	mov	r10, r24
    3f66:	a0 0e       	add	r10, r16
    3f68:	89 e0       	ldi	r24, 0x09	; 9
    3f6a:	8a 15       	cp	r24, r10
    3f6c:	30 f1       	brcs	.+76     	; 0x3fba <strtod+0x12a>
    3f6e:	91 2f       	mov	r25, r17
    3f70:	92 60       	ori	r25, 0x02	; 2
    3f72:	b9 2e       	mov	r11, r25
    3f74:	81 2f       	mov	r24, r17
    3f76:	88 70       	andi	r24, 0x08	; 8
    3f78:	12 ff       	sbrs	r17, 2
    3f7a:	04 c0       	rjmp	.+8      	; 0x3f84 <strtod+0xf4>
    3f7c:	81 11       	cpse	r24, r1
    3f7e:	24 c0       	rjmp	.+72     	; 0x3fc8 <strtod+0x138>
    3f80:	21 96       	adiw	r28, 0x01	; 1
    3f82:	22 c0       	rjmp	.+68     	; 0x3fc8 <strtod+0x138>
    3f84:	81 11       	cpse	r24, r1
    3f86:	21 97       	sbiw	r28, 0x01	; 1
    3f88:	a5 e0       	ldi	r26, 0x05	; 5
    3f8a:	b0 e0       	ldi	r27, 0x00	; 0
    3f8c:	0e 94 89 21 	call	0x4312	; 0x4312 <__muluhisi3>
    3f90:	dc 01       	movw	r26, r24
    3f92:	cb 01       	movw	r24, r22
    3f94:	88 0f       	add	r24, r24
    3f96:	99 1f       	adc	r25, r25
    3f98:	aa 1f       	adc	r26, r26
    3f9a:	bb 1f       	adc	r27, r27
    3f9c:	9c 01       	movw	r18, r24
    3f9e:	ad 01       	movw	r20, r26
    3fa0:	2a 0d       	add	r18, r10
    3fa2:	31 1d       	adc	r19, r1
    3fa4:	41 1d       	adc	r20, r1
    3fa6:	51 1d       	adc	r21, r1
    3fa8:	28 39       	cpi	r18, 0x98	; 152
    3faa:	89 e9       	ldi	r24, 0x99	; 153
    3fac:	38 07       	cpc	r19, r24
    3fae:	48 07       	cpc	r20, r24
    3fb0:	89 e1       	ldi	r24, 0x19	; 25
    3fb2:	58 07       	cpc	r21, r24
    3fb4:	48 f0       	brcs	.+18     	; 0x3fc8 <strtod+0x138>
    3fb6:	16 60       	ori	r17, 0x06	; 6
    3fb8:	06 c0       	rjmp	.+12     	; 0x3fc6 <strtod+0x136>
    3fba:	9e ef       	ldi	r25, 0xFE	; 254
    3fbc:	a9 12       	cpse	r10, r25
    3fbe:	0a c0       	rjmp	.+20     	; 0x3fd4 <strtod+0x144>
    3fc0:	13 fd       	sbrc	r17, 3
    3fc2:	40 c0       	rjmp	.+128    	; 0x4044 <strtod+0x1b4>
    3fc4:	18 60       	ori	r17, 0x08	; 8
    3fc6:	b1 2e       	mov	r11, r17
    3fc8:	8f ef       	ldi	r24, 0xFF	; 255
    3fca:	e8 1a       	sub	r14, r24
    3fcc:	f8 0a       	sbc	r15, r24
    3fce:	00 81       	ld	r16, Z
    3fd0:	1b 2d       	mov	r17, r11
    3fd2:	c6 cf       	rjmp	.-116    	; 0x3f60 <strtod+0xd0>
    3fd4:	80 2f       	mov	r24, r16
    3fd6:	8f 7d       	andi	r24, 0xDF	; 223
    3fd8:	85 34       	cpi	r24, 0x45	; 69
    3fda:	a1 f5       	brne	.+104    	; 0x4044 <strtod+0x1b4>
    3fdc:	80 81       	ld	r24, Z
    3fde:	8d 32       	cpi	r24, 0x2D	; 45
    3fe0:	11 f4       	brne	.+4      	; 0x3fe6 <strtod+0x156>
    3fe2:	10 61       	ori	r17, 0x10	; 16
    3fe4:	06 c0       	rjmp	.+12     	; 0x3ff2 <strtod+0x162>
    3fe6:	8b 32       	cpi	r24, 0x2B	; 43
    3fe8:	21 f0       	breq	.+8      	; 0x3ff2 <strtod+0x162>
    3fea:	31 96       	adiw	r30, 0x01	; 1
    3fec:	61 e0       	ldi	r22, 0x01	; 1
    3fee:	70 e0       	ldi	r23, 0x00	; 0
    3ff0:	04 c0       	rjmp	.+8      	; 0x3ffa <strtod+0x16a>
    3ff2:	81 81       	ldd	r24, Z+1	; 0x01
    3ff4:	32 96       	adiw	r30, 0x02	; 2
    3ff6:	62 e0       	ldi	r22, 0x02	; 2
    3ff8:	70 e0       	ldi	r23, 0x00	; 0
    3ffa:	80 53       	subi	r24, 0x30	; 48
    3ffc:	8a 30       	cpi	r24, 0x0A	; 10
    3ffe:	18 f0       	brcs	.+6      	; 0x4006 <strtod+0x176>
    4000:	e6 1b       	sub	r30, r22
    4002:	f7 0b       	sbc	r31, r23
    4004:	1f c0       	rjmp	.+62     	; 0x4044 <strtod+0x1b4>
    4006:	60 e0       	ldi	r22, 0x00	; 0
    4008:	70 e0       	ldi	r23, 0x00	; 0
    400a:	60 38       	cpi	r22, 0x80	; 128
    400c:	9c e0       	ldi	r25, 0x0C	; 12
    400e:	79 07       	cpc	r23, r25
    4010:	5c f4       	brge	.+22     	; 0x4028 <strtod+0x198>
    4012:	db 01       	movw	r26, r22
    4014:	aa 0f       	add	r26, r26
    4016:	bb 1f       	adc	r27, r27
    4018:	aa 0f       	add	r26, r26
    401a:	bb 1f       	adc	r27, r27
    401c:	6a 0f       	add	r22, r26
    401e:	7b 1f       	adc	r23, r27
    4020:	66 0f       	add	r22, r22
    4022:	77 1f       	adc	r23, r23
    4024:	68 0f       	add	r22, r24
    4026:	71 1d       	adc	r23, r1
    4028:	31 96       	adiw	r30, 0x01	; 1
    402a:	df 01       	movw	r26, r30
    402c:	11 97       	sbiw	r26, 0x01	; 1
    402e:	8c 91       	ld	r24, X
    4030:	80 53       	subi	r24, 0x30	; 48
    4032:	8a 30       	cpi	r24, 0x0A	; 10
    4034:	50 f3       	brcs	.-44     	; 0x400a <strtod+0x17a>
    4036:	14 ff       	sbrs	r17, 4
    4038:	03 c0       	rjmp	.+6      	; 0x4040 <strtod+0x1b0>
    403a:	71 95       	neg	r23
    403c:	61 95       	neg	r22
    403e:	71 09       	sbc	r23, r1
    4040:	c6 0f       	add	r28, r22
    4042:	d7 1f       	adc	r29, r23
    4044:	11 ff       	sbrs	r17, 1
    4046:	08 c0       	rjmp	.+16     	; 0x4058 <strtod+0x1c8>
    4048:	c1 14       	cp	r12, r1
    404a:	d1 04       	cpc	r13, r1
    404c:	29 f0       	breq	.+10     	; 0x4058 <strtod+0x1c8>
    404e:	cf 01       	movw	r24, r30
    4050:	01 97       	sbiw	r24, 0x01	; 1
    4052:	f6 01       	movw	r30, r12
    4054:	91 83       	std	Z+1, r25	; 0x01
    4056:	80 83       	st	Z, r24
    4058:	ca 01       	movw	r24, r20
    405a:	b9 01       	movw	r22, r18
    405c:	0e 94 37 18 	call	0x306e	; 0x306e <__floatunsisf>
    4060:	21 2f       	mov	r18, r17
    4062:	23 70       	andi	r18, 0x03	; 3
    4064:	23 30       	cpi	r18, 0x03	; 3
    4066:	19 f0       	breq	.+6      	; 0x406e <strtod+0x1de>
    4068:	4b 01       	movw	r8, r22
    406a:	5c 01       	movw	r10, r24
    406c:	06 c0       	rjmp	.+12     	; 0x407a <strtod+0x1ea>
    406e:	4b 01       	movw	r8, r22
    4070:	5c 01       	movw	r10, r24
    4072:	b7 fa       	bst	r11, 7
    4074:	b0 94       	com	r11
    4076:	b7 f8       	bld	r11, 7
    4078:	b0 94       	com	r11
    407a:	20 e0       	ldi	r18, 0x00	; 0
    407c:	30 e0       	ldi	r19, 0x00	; 0
    407e:	a9 01       	movw	r20, r18
    4080:	c5 01       	movw	r24, r10
    4082:	b4 01       	movw	r22, r8
    4084:	0e 94 34 17 	call	0x2e68	; 0x2e68 <__cmpsf2>
    4088:	88 23       	and	r24, r24
    408a:	09 f4       	brne	.+2      	; 0x408e <strtod+0x1fe>
    408c:	3e c0       	rjmp	.+124    	; 0x410a <strtod+0x27a>
    408e:	d7 ff       	sbrs	r29, 7
    4090:	06 c0       	rjmp	.+12     	; 0x409e <strtod+0x20e>
    4092:	d1 95       	neg	r29
    4094:	c1 95       	neg	r28
    4096:	d1 09       	sbc	r29, r1
    4098:	0d eb       	ldi	r16, 0xBD	; 189
    409a:	11 e0       	ldi	r17, 0x01	; 1
    409c:	02 c0       	rjmp	.+4      	; 0x40a2 <strtod+0x212>
    409e:	05 ed       	ldi	r16, 0xD5	; 213
    40a0:	11 e0       	ldi	r17, 0x01	; 1
    40a2:	68 01       	movw	r12, r16
    40a4:	f8 e1       	ldi	r31, 0x18	; 24
    40a6:	cf 1a       	sub	r12, r31
    40a8:	d1 08       	sbc	r13, r1
    40aa:	90 e2       	ldi	r25, 0x20	; 32
    40ac:	e9 2e       	mov	r14, r25
    40ae:	f1 2c       	mov	r15, r1
    40b0:	ce 15       	cp	r28, r14
    40b2:	df 05       	cpc	r29, r15
    40b4:	74 f0       	brlt	.+28     	; 0x40d2 <strtod+0x242>
    40b6:	f8 01       	movw	r30, r16
    40b8:	25 91       	lpm	r18, Z+
    40ba:	35 91       	lpm	r19, Z+
    40bc:	45 91       	lpm	r20, Z+
    40be:	54 91       	lpm	r21, Z
    40c0:	c5 01       	movw	r24, r10
    40c2:	b4 01       	movw	r22, r8
    40c4:	0e 94 ae 1a 	call	0x355c	; 0x355c <__mulsf3>
    40c8:	4b 01       	movw	r8, r22
    40ca:	5c 01       	movw	r10, r24
    40cc:	ce 19       	sub	r28, r14
    40ce:	df 09       	sbc	r29, r15
    40d0:	ef cf       	rjmp	.-34     	; 0x40b0 <strtod+0x220>
    40d2:	04 50       	subi	r16, 0x04	; 4
    40d4:	11 09       	sbc	r17, r1
    40d6:	f5 94       	asr	r15
    40d8:	e7 94       	ror	r14
    40da:	0c 15       	cp	r16, r12
    40dc:	1d 05       	cpc	r17, r13
    40de:	41 f7       	brne	.-48     	; 0x40b0 <strtod+0x220>
    40e0:	8a 2d       	mov	r24, r10
    40e2:	88 0f       	add	r24, r24
    40e4:	8b 2d       	mov	r24, r11
    40e6:	88 1f       	adc	r24, r24
    40e8:	8f 3f       	cpi	r24, 0xFF	; 255
    40ea:	49 f0       	breq	.+18     	; 0x40fe <strtod+0x26e>
    40ec:	20 e0       	ldi	r18, 0x00	; 0
    40ee:	30 e0       	ldi	r19, 0x00	; 0
    40f0:	a9 01       	movw	r20, r18
    40f2:	c5 01       	movw	r24, r10
    40f4:	b4 01       	movw	r22, r8
    40f6:	0e 94 34 17 	call	0x2e68	; 0x2e68 <__cmpsf2>
    40fa:	81 11       	cpse	r24, r1
    40fc:	06 c0       	rjmp	.+12     	; 0x410a <strtod+0x27a>
    40fe:	82 e2       	ldi	r24, 0x22	; 34
    4100:	90 e0       	ldi	r25, 0x00	; 0
    4102:	90 93 af 06 	sts	0x06AF, r25	; 0x8006af <errno+0x1>
    4106:	80 93 ae 06 	sts	0x06AE, r24	; 0x8006ae <errno>
    410a:	c5 01       	movw	r24, r10
    410c:	b4 01       	movw	r22, r8
    410e:	09 c0       	rjmp	.+18     	; 0x4122 <strtod+0x292>
    4110:	60 e0       	ldi	r22, 0x00	; 0
    4112:	70 e0       	ldi	r23, 0x00	; 0
    4114:	80 e8       	ldi	r24, 0x80	; 128
    4116:	9f ef       	ldi	r25, 0xFF	; 255
    4118:	04 c0       	rjmp	.+8      	; 0x4122 <strtod+0x292>
    411a:	60 e0       	ldi	r22, 0x00	; 0
    411c:	70 e0       	ldi	r23, 0x00	; 0
    411e:	80 ec       	ldi	r24, 0xC0	; 192
    4120:	9f e7       	ldi	r25, 0x7F	; 127
    4122:	cd b7       	in	r28, 0x3d	; 61
    4124:	de b7       	in	r29, 0x3e	; 62
    4126:	ec e0       	ldi	r30, 0x0C	; 12
    4128:	0c 94 b6 21 	jmp	0x436c	; 0x436c <__epilogue_restores__+0xc>

0000412c <__ftoa_engine>:
    412c:	28 30       	cpi	r18, 0x08	; 8
    412e:	08 f0       	brcs	.+2      	; 0x4132 <__ftoa_engine+0x6>
    4130:	27 e0       	ldi	r18, 0x07	; 7
    4132:	33 27       	eor	r19, r19
    4134:	da 01       	movw	r26, r20
    4136:	99 0f       	add	r25, r25
    4138:	31 1d       	adc	r19, r1
    413a:	87 fd       	sbrc	r24, 7
    413c:	91 60       	ori	r25, 0x01	; 1
    413e:	00 96       	adiw	r24, 0x00	; 0
    4140:	61 05       	cpc	r22, r1
    4142:	71 05       	cpc	r23, r1
    4144:	39 f4       	brne	.+14     	; 0x4154 <__ftoa_engine+0x28>
    4146:	32 60       	ori	r19, 0x02	; 2
    4148:	2e 5f       	subi	r18, 0xFE	; 254
    414a:	3d 93       	st	X+, r19
    414c:	30 e3       	ldi	r19, 0x30	; 48
    414e:	2a 95       	dec	r18
    4150:	e1 f7       	brne	.-8      	; 0x414a <__ftoa_engine+0x1e>
    4152:	08 95       	ret
    4154:	9f 3f       	cpi	r25, 0xFF	; 255
    4156:	30 f0       	brcs	.+12     	; 0x4164 <__ftoa_engine+0x38>
    4158:	80 38       	cpi	r24, 0x80	; 128
    415a:	71 05       	cpc	r23, r1
    415c:	61 05       	cpc	r22, r1
    415e:	09 f0       	breq	.+2      	; 0x4162 <__ftoa_engine+0x36>
    4160:	3c 5f       	subi	r19, 0xFC	; 252
    4162:	3c 5f       	subi	r19, 0xFC	; 252
    4164:	3d 93       	st	X+, r19
    4166:	91 30       	cpi	r25, 0x01	; 1
    4168:	08 f0       	brcs	.+2      	; 0x416c <__ftoa_engine+0x40>
    416a:	80 68       	ori	r24, 0x80	; 128
    416c:	91 1d       	adc	r25, r1
    416e:	df 93       	push	r29
    4170:	cf 93       	push	r28
    4172:	1f 93       	push	r17
    4174:	0f 93       	push	r16
    4176:	ff 92       	push	r15
    4178:	ef 92       	push	r14
    417a:	19 2f       	mov	r17, r25
    417c:	98 7f       	andi	r25, 0xF8	; 248
    417e:	96 95       	lsr	r25
    4180:	e9 2f       	mov	r30, r25
    4182:	96 95       	lsr	r25
    4184:	96 95       	lsr	r25
    4186:	e9 0f       	add	r30, r25
    4188:	ff 27       	eor	r31, r31
    418a:	ed 5c       	subi	r30, 0xCD	; 205
    418c:	fd 4f       	sbci	r31, 0xFD	; 253
    418e:	99 27       	eor	r25, r25
    4190:	33 27       	eor	r19, r19
    4192:	ee 24       	eor	r14, r14
    4194:	ff 24       	eor	r15, r15
    4196:	a7 01       	movw	r20, r14
    4198:	e7 01       	movw	r28, r14
    419a:	05 90       	lpm	r0, Z+
    419c:	08 94       	sec
    419e:	07 94       	ror	r0
    41a0:	28 f4       	brcc	.+10     	; 0x41ac <__ftoa_engine+0x80>
    41a2:	36 0f       	add	r19, r22
    41a4:	e7 1e       	adc	r14, r23
    41a6:	f8 1e       	adc	r15, r24
    41a8:	49 1f       	adc	r20, r25
    41aa:	51 1d       	adc	r21, r1
    41ac:	66 0f       	add	r22, r22
    41ae:	77 1f       	adc	r23, r23
    41b0:	88 1f       	adc	r24, r24
    41b2:	99 1f       	adc	r25, r25
    41b4:	06 94       	lsr	r0
    41b6:	a1 f7       	brne	.-24     	; 0x41a0 <__ftoa_engine+0x74>
    41b8:	05 90       	lpm	r0, Z+
    41ba:	07 94       	ror	r0
    41bc:	28 f4       	brcc	.+10     	; 0x41c8 <__ftoa_engine+0x9c>
    41be:	e7 0e       	add	r14, r23
    41c0:	f8 1e       	adc	r15, r24
    41c2:	49 1f       	adc	r20, r25
    41c4:	56 1f       	adc	r21, r22
    41c6:	c1 1d       	adc	r28, r1
    41c8:	77 0f       	add	r23, r23
    41ca:	88 1f       	adc	r24, r24
    41cc:	99 1f       	adc	r25, r25
    41ce:	66 1f       	adc	r22, r22
    41d0:	06 94       	lsr	r0
    41d2:	a1 f7       	brne	.-24     	; 0x41bc <__ftoa_engine+0x90>
    41d4:	05 90       	lpm	r0, Z+
    41d6:	07 94       	ror	r0
    41d8:	28 f4       	brcc	.+10     	; 0x41e4 <__ftoa_engine+0xb8>
    41da:	f8 0e       	add	r15, r24
    41dc:	49 1f       	adc	r20, r25
    41de:	56 1f       	adc	r21, r22
    41e0:	c7 1f       	adc	r28, r23
    41e2:	d1 1d       	adc	r29, r1
    41e4:	88 0f       	add	r24, r24
    41e6:	99 1f       	adc	r25, r25
    41e8:	66 1f       	adc	r22, r22
    41ea:	77 1f       	adc	r23, r23
    41ec:	06 94       	lsr	r0
    41ee:	a1 f7       	brne	.-24     	; 0x41d8 <__ftoa_engine+0xac>
    41f0:	05 90       	lpm	r0, Z+
    41f2:	07 94       	ror	r0
    41f4:	20 f4       	brcc	.+8      	; 0x41fe <__ftoa_engine+0xd2>
    41f6:	49 0f       	add	r20, r25
    41f8:	56 1f       	adc	r21, r22
    41fa:	c7 1f       	adc	r28, r23
    41fc:	d8 1f       	adc	r29, r24
    41fe:	99 0f       	add	r25, r25
    4200:	66 1f       	adc	r22, r22
    4202:	77 1f       	adc	r23, r23
    4204:	88 1f       	adc	r24, r24
    4206:	06 94       	lsr	r0
    4208:	a9 f7       	brne	.-22     	; 0x41f4 <__ftoa_engine+0xc8>
    420a:	84 91       	lpm	r24, Z
    420c:	10 95       	com	r17
    420e:	17 70       	andi	r17, 0x07	; 7
    4210:	41 f0       	breq	.+16     	; 0x4222 <__ftoa_engine+0xf6>
    4212:	d6 95       	lsr	r29
    4214:	c7 95       	ror	r28
    4216:	57 95       	ror	r21
    4218:	47 95       	ror	r20
    421a:	f7 94       	ror	r15
    421c:	e7 94       	ror	r14
    421e:	1a 95       	dec	r17
    4220:	c1 f7       	brne	.-16     	; 0x4212 <__ftoa_engine+0xe6>
    4222:	e9 ed       	ldi	r30, 0xD9	; 217
    4224:	f1 e0       	ldi	r31, 0x01	; 1
    4226:	68 94       	set
    4228:	15 90       	lpm	r1, Z+
    422a:	15 91       	lpm	r17, Z+
    422c:	35 91       	lpm	r19, Z+
    422e:	65 91       	lpm	r22, Z+
    4230:	95 91       	lpm	r25, Z+
    4232:	05 90       	lpm	r0, Z+
    4234:	7f e2       	ldi	r23, 0x2F	; 47
    4236:	73 95       	inc	r23
    4238:	e1 18       	sub	r14, r1
    423a:	f1 0a       	sbc	r15, r17
    423c:	43 0b       	sbc	r20, r19
    423e:	56 0b       	sbc	r21, r22
    4240:	c9 0b       	sbc	r28, r25
    4242:	d0 09       	sbc	r29, r0
    4244:	c0 f7       	brcc	.-16     	; 0x4236 <__ftoa_engine+0x10a>
    4246:	e1 0c       	add	r14, r1
    4248:	f1 1e       	adc	r15, r17
    424a:	43 1f       	adc	r20, r19
    424c:	56 1f       	adc	r21, r22
    424e:	c9 1f       	adc	r28, r25
    4250:	d0 1d       	adc	r29, r0
    4252:	7e f4       	brtc	.+30     	; 0x4272 <__ftoa_engine+0x146>
    4254:	70 33       	cpi	r23, 0x30	; 48
    4256:	11 f4       	brne	.+4      	; 0x425c <__ftoa_engine+0x130>
    4258:	8a 95       	dec	r24
    425a:	e6 cf       	rjmp	.-52     	; 0x4228 <__ftoa_engine+0xfc>
    425c:	e8 94       	clt
    425e:	01 50       	subi	r16, 0x01	; 1
    4260:	30 f0       	brcs	.+12     	; 0x426e <__ftoa_engine+0x142>
    4262:	08 0f       	add	r16, r24
    4264:	0a f4       	brpl	.+2      	; 0x4268 <__ftoa_engine+0x13c>
    4266:	00 27       	eor	r16, r16
    4268:	02 17       	cp	r16, r18
    426a:	08 f4       	brcc	.+2      	; 0x426e <__ftoa_engine+0x142>
    426c:	20 2f       	mov	r18, r16
    426e:	23 95       	inc	r18
    4270:	02 2f       	mov	r16, r18
    4272:	7a 33       	cpi	r23, 0x3A	; 58
    4274:	28 f0       	brcs	.+10     	; 0x4280 <__ftoa_engine+0x154>
    4276:	79 e3       	ldi	r23, 0x39	; 57
    4278:	7d 93       	st	X+, r23
    427a:	2a 95       	dec	r18
    427c:	e9 f7       	brne	.-6      	; 0x4278 <__ftoa_engine+0x14c>
    427e:	10 c0       	rjmp	.+32     	; 0x42a0 <__ftoa_engine+0x174>
    4280:	7d 93       	st	X+, r23
    4282:	2a 95       	dec	r18
    4284:	89 f6       	brne	.-94     	; 0x4228 <__ftoa_engine+0xfc>
    4286:	06 94       	lsr	r0
    4288:	97 95       	ror	r25
    428a:	67 95       	ror	r22
    428c:	37 95       	ror	r19
    428e:	17 95       	ror	r17
    4290:	17 94       	ror	r1
    4292:	e1 18       	sub	r14, r1
    4294:	f1 0a       	sbc	r15, r17
    4296:	43 0b       	sbc	r20, r19
    4298:	56 0b       	sbc	r21, r22
    429a:	c9 0b       	sbc	r28, r25
    429c:	d0 09       	sbc	r29, r0
    429e:	98 f0       	brcs	.+38     	; 0x42c6 <__ftoa_engine+0x19a>
    42a0:	23 95       	inc	r18
    42a2:	7e 91       	ld	r23, -X
    42a4:	73 95       	inc	r23
    42a6:	7a 33       	cpi	r23, 0x3A	; 58
    42a8:	08 f0       	brcs	.+2      	; 0x42ac <__ftoa_engine+0x180>
    42aa:	70 e3       	ldi	r23, 0x30	; 48
    42ac:	7c 93       	st	X, r23
    42ae:	20 13       	cpse	r18, r16
    42b0:	b8 f7       	brcc	.-18     	; 0x42a0 <__ftoa_engine+0x174>
    42b2:	7e 91       	ld	r23, -X
    42b4:	70 61       	ori	r23, 0x10	; 16
    42b6:	7d 93       	st	X+, r23
    42b8:	30 f0       	brcs	.+12     	; 0x42c6 <__ftoa_engine+0x19a>
    42ba:	83 95       	inc	r24
    42bc:	71 e3       	ldi	r23, 0x31	; 49
    42be:	7d 93       	st	X+, r23
    42c0:	70 e3       	ldi	r23, 0x30	; 48
    42c2:	2a 95       	dec	r18
    42c4:	e1 f7       	brne	.-8      	; 0x42be <__ftoa_engine+0x192>
    42c6:	11 24       	eor	r1, r1
    42c8:	ef 90       	pop	r14
    42ca:	ff 90       	pop	r15
    42cc:	0f 91       	pop	r16
    42ce:	1f 91       	pop	r17
    42d0:	cf 91       	pop	r28
    42d2:	df 91       	pop	r29
    42d4:	99 27       	eor	r25, r25
    42d6:	87 fd       	sbrc	r24, 7
    42d8:	90 95       	com	r25
    42da:	08 95       	ret

000042dc <__ctype_isfalse>:
    42dc:	99 27       	eor	r25, r25
    42de:	88 27       	eor	r24, r24

000042e0 <__ctype_istrue>:
    42e0:	08 95       	ret

000042e2 <strncasecmp_P>:
    42e2:	fb 01       	movw	r30, r22
    42e4:	dc 01       	movw	r26, r24
    42e6:	41 50       	subi	r20, 0x01	; 1
    42e8:	50 40       	sbci	r21, 0x00	; 0
    42ea:	88 f0       	brcs	.+34     	; 0x430e <strncasecmp_P+0x2c>
    42ec:	8d 91       	ld	r24, X+
    42ee:	81 34       	cpi	r24, 0x41	; 65
    42f0:	1c f0       	brlt	.+6      	; 0x42f8 <strncasecmp_P+0x16>
    42f2:	8b 35       	cpi	r24, 0x5B	; 91
    42f4:	0c f4       	brge	.+2      	; 0x42f8 <strncasecmp_P+0x16>
    42f6:	80 5e       	subi	r24, 0xE0	; 224
    42f8:	65 91       	lpm	r22, Z+
    42fa:	61 34       	cpi	r22, 0x41	; 65
    42fc:	1c f0       	brlt	.+6      	; 0x4304 <strncasecmp_P+0x22>
    42fe:	6b 35       	cpi	r22, 0x5B	; 91
    4300:	0c f4       	brge	.+2      	; 0x4304 <strncasecmp_P+0x22>
    4302:	60 5e       	subi	r22, 0xE0	; 224
    4304:	86 1b       	sub	r24, r22
    4306:	61 11       	cpse	r22, r1
    4308:	71 f3       	breq	.-36     	; 0x42e6 <strncasecmp_P+0x4>
    430a:	99 0b       	sbc	r25, r25
    430c:	08 95       	ret
    430e:	88 1b       	sub	r24, r24
    4310:	fc cf       	rjmp	.-8      	; 0x430a <strncasecmp_P+0x28>

00004312 <__muluhisi3>:
    4312:	0e 94 cb 21 	call	0x4396	; 0x4396 <__umulhisi3>
    4316:	a5 9f       	mul	r26, r21
    4318:	90 0d       	add	r25, r0
    431a:	b4 9f       	mul	r27, r20
    431c:	90 0d       	add	r25, r0
    431e:	a4 9f       	mul	r26, r20
    4320:	80 0d       	add	r24, r0
    4322:	91 1d       	adc	r25, r1
    4324:	11 24       	eor	r1, r1
    4326:	08 95       	ret

00004328 <__prologue_saves__>:
    4328:	2f 92       	push	r2
    432a:	3f 92       	push	r3
    432c:	4f 92       	push	r4
    432e:	5f 92       	push	r5
    4330:	6f 92       	push	r6
    4332:	7f 92       	push	r7
    4334:	8f 92       	push	r8
    4336:	9f 92       	push	r9
    4338:	af 92       	push	r10
    433a:	bf 92       	push	r11
    433c:	cf 92       	push	r12
    433e:	df 92       	push	r13
    4340:	ef 92       	push	r14
    4342:	ff 92       	push	r15
    4344:	0f 93       	push	r16
    4346:	1f 93       	push	r17
    4348:	cf 93       	push	r28
    434a:	df 93       	push	r29
    434c:	cd b7       	in	r28, 0x3d	; 61
    434e:	de b7       	in	r29, 0x3e	; 62
    4350:	ca 1b       	sub	r28, r26
    4352:	db 0b       	sbc	r29, r27
    4354:	0f b6       	in	r0, 0x3f	; 63
    4356:	f8 94       	cli
    4358:	de bf       	out	0x3e, r29	; 62
    435a:	0f be       	out	0x3f, r0	; 63
    435c:	cd bf       	out	0x3d, r28	; 61
    435e:	09 94       	ijmp

00004360 <__epilogue_restores__>:
    4360:	2a 88       	ldd	r2, Y+18	; 0x12
    4362:	39 88       	ldd	r3, Y+17	; 0x11
    4364:	48 88       	ldd	r4, Y+16	; 0x10
    4366:	5f 84       	ldd	r5, Y+15	; 0x0f
    4368:	6e 84       	ldd	r6, Y+14	; 0x0e
    436a:	7d 84       	ldd	r7, Y+13	; 0x0d
    436c:	8c 84       	ldd	r8, Y+12	; 0x0c
    436e:	9b 84       	ldd	r9, Y+11	; 0x0b
    4370:	aa 84       	ldd	r10, Y+10	; 0x0a
    4372:	b9 84       	ldd	r11, Y+9	; 0x09
    4374:	c8 84       	ldd	r12, Y+8	; 0x08
    4376:	df 80       	ldd	r13, Y+7	; 0x07
    4378:	ee 80       	ldd	r14, Y+6	; 0x06
    437a:	fd 80       	ldd	r15, Y+5	; 0x05
    437c:	0c 81       	ldd	r16, Y+4	; 0x04
    437e:	1b 81       	ldd	r17, Y+3	; 0x03
    4380:	aa 81       	ldd	r26, Y+2	; 0x02
    4382:	b9 81       	ldd	r27, Y+1	; 0x01
    4384:	ce 0f       	add	r28, r30
    4386:	d1 1d       	adc	r29, r1
    4388:	0f b6       	in	r0, 0x3f	; 63
    438a:	f8 94       	cli
    438c:	de bf       	out	0x3e, r29	; 62
    438e:	0f be       	out	0x3f, r0	; 63
    4390:	cd bf       	out	0x3d, r28	; 61
    4392:	ed 01       	movw	r28, r26
    4394:	08 95       	ret

00004396 <__umulhisi3>:
    4396:	a2 9f       	mul	r26, r18
    4398:	b0 01       	movw	r22, r0
    439a:	b3 9f       	mul	r27, r19
    439c:	c0 01       	movw	r24, r0
    439e:	a3 9f       	mul	r26, r19
    43a0:	70 0d       	add	r23, r0
    43a2:	81 1d       	adc	r24, r1
    43a4:	11 24       	eor	r1, r1
    43a6:	91 1d       	adc	r25, r1
    43a8:	b2 9f       	mul	r27, r18
    43aa:	70 0d       	add	r23, r0
    43ac:	81 1d       	adc	r24, r1
    43ae:	11 24       	eor	r1, r1
    43b0:	91 1d       	adc	r25, r1
    43b2:	08 95       	ret

000043b4 <_exit>:
    43b4:	f8 94       	cli

000043b6 <__stop_program>:
    43b6:	ff cf       	rjmp	.-2      	; 0x43b6 <__stop_program>
